ccollections
OrderedDict
p1
((lp2
(lp3
S'the'
p4
aI2
aa(lp5
S'of'
p6
aI3
aa(lp7
S'to'
p8
aI4
aa(lp9
S'and'
p10
aI5
aa(lp11
S'in'
p12
aI6
aa(lp13
S'a'
aI7
aa(lp14
S'that'
p15
aI8
aa(lp16
S'are'
p17
aI9
aa(lp18
S'they'
p19
aI10
aa(lp20
S'is'
p21
aI11
aa(lp22
S'were'
p23
aI12
aa(lp24
S'we'
p25
aI13
aa(lp26
S'They'
p27
aI14
aa(lp28
S'this'
p29
aI15
aa(lp30
S'We'
p31
aI16
aa(lp32
S'for'
p33
aI17
aa(lp34
S'students'
p35
aI18
aa(lp36
S'have'
p37
aI19
aa(lp38
S'not'
p39
aI20
aa(lp40
S'on'
p41
aI21
aa(lp42
S'them'
p43
aI22
aa(lp44
S'by'
p45
aI23
aa(lp46
S'The'
p47
aI24
aa(lp48
S'with'
p49
aI25
aa(lp50
S'from'
p51
aI26
aa(lp52
S'was'
p53
aI27
aa(lp54
S'their'
p55
aI28
aa(lp56
S'us'
p57
aI29
aa(lp58
S'I'
aI30
aa(lp59
S'you'
p60
aI31
aa(lp61
S'police'
p62
aI32
aa(lp63
S'people'
p64
aI33
aa(lp65
S'parents'
p66
aI34
aa(lp67
S'Mexico'
p68
aI35
aa(lp69
S'be'
p70
aI36
aa(lp71
S'who'
p72
aI37
aa(lp73
S'at'
p74
aI38
aa(lp75
S'would'
p76
aI39
aa(lp77
S'has'
p78
aI40
aa(lp79
S'it'
p80
aI41
aa(lp81
S'been'
p82
aI42
aa(lp83
S'And'
p84
aI43
aa(lp85
S'one'
p86
aI44
aa(lp87
S'these'
p88
aI45
aa(lp89
S'students.'
p90
aI46
aa(lp91
S'He'
p92
aI47
aa(lp93
S'our'
p94
aI48
aa(lp95
S'Ayotzinapa'
p96
aI49
aa(lp97
S'there'
p98
aI50
aa(lp99
S'government'
p100
aI51
aa(lp101
S'On'
p102
aI52
aa(lp103
S'43'
p104
aI53
aa(lp105
S'had'
p106
aI54
aa(lp107
S'said'
p108
aI55
aa(lp109
S'can'
p110
aI56
aa(lp111
S'all'
p112
aI57
aa(lp113
S'as'
p114
aI58
aa(lp115
S'which'
p116
aI59
aa(lp117
S'he'
p118
aI60
aa(lp119
S'but'
p120
aI61
aa(lp121
S'took'
p122
aI62
aa(lp123
S'search'
p124
aI63
aa(lp125
S'or'
p126
aI64
aa(lp127
S'what'
p128
aI65
aa(lp129
S'many'
p130
aI66
aa(lp131
S'here'
p132
aI67
aa(lp133
S'an'
p134
aI68
aa(lp135
S'Iguala,'
p136
aI69
aa(lp137
S'want'
p138
aI70
aa(lp139
S'where'
p140
aI71
aa(lp141
S'more'
p142
aI72
aa(lp143
S'see'
p144
aI73
aa(lp145
S'Normal'
p146
aI74
aa(lp147
S'killed'
p148
aI75
aa(lp149
S'bodies'
p150
aI76
aa(lp151
S'Iguala.'
p152
aI77
aa(lp153
S'students,'
p154
aI78
aa(lp155
S'them,'
p156
aI79
aa(lp157
S'first'
p158
aI80
aa(lp159
S'do'
p160
aI81
aa(lp161
S'Iguala'
p162
aI82
aa(lp163
S'It'
p164
aI83
aa(lp165
S'out'
p166
aI84
aa(lp167
S'alive.'
p168
aI85
aa(lp169
S'missing'
p170
aI86
aa(lp171
S'forensic'
p172
aI87
aa(lp173
S'young'
p174
aI88
aa(lp175
S'Guerrero.'
p176
aI89
aa(lp177
S'back'
p178
aI90
aa(lp179
S'state'
p180
aI91
aa(lp181
S'going'
p182
aI92
aa(lp183
S'attack'
p184
aI93
aa(lp185
S'around'
p186
aI94
aa(lp187
S'This'
p188
aI95
aa(lp189
S'put'
p190
aI96
aa(lp191
S'how'
p192
aI97
aa(lp193
S'trust'
p194
aI98
aa(lp195
S'now'
p196
aI99
aa(lp197
S'remains'
p198
aI100
aa(lp199
S'still'
p200
aI101
aa(lp201
S'say'
p202
aI102
aa(lp203
S'because'
p204
aI103
aa(lp205
S'very'
p206
aI104
aa(lp207
S'School'
p208
aI105
aa(lp209
S'its'
p210
aI106
aa(lp211
S'believe'
p212
aI107
aa(lp213
S'think'
p214
aI108
aa(lp215
S'authorities'
p216
aI109
aa(lp217
S'country'
p218
aI110
aa(lp219
S'no'
p220
aI111
aa(lp221
S'take'
p222
aI112
aa(lp223
S'finding'
p224
aI113
aa(lp225
S'Ayotzinapa.'
p226
aI114
aa(lp227
S'October'
p228
aI115
aa(lp229
S"'"
aI116
aa(lp230
S'also'
p231
aI117
aa(lp232
S'give'
p233
aI118
aa(lp234
S'group'
p235
aI119
aa(lp236
S'them.'
p237
aI120
aa(lp238
S'some'
p239
aI121
aa(lp240
S'way'
p241
aI122
aa(lp242
S'That'
p243
aI123
aa(lp244
S'known'
p245
aI124
aa(lp246
S'left'
p247
aI125
aa(lp248
S'In'
p249
aI126
aa(lp250
S'fire'
p251
aI127
aa(lp252
S'any'
p253
aI128
aa(lp254
S'same'
p255
aI129
aa(lp256
S'then,'
p257
aI130
aa(lp258
S'local'
p259
aI131
aa(lp260
S'will'
p261
aI132
aa(lp262
S'Pe\xc3\xb1a'
p263
aI133
aa(lp264
S'found'
p265
aI134
aa(lp266
S'set'
p267
aI135
aa(lp268
S'just'
p269
aI136
aa(lp270
S'started'
p271
aI137
aa(lp272
S'other'
p273
aI138
aa(lp274
S'Mexican'
p275
aI139
aa(lp276
S'Because'
p277
aI140
aa(lp278
S'get'
p279
aI141
aa(lp280
S'make'
p281
aI142
aa(lp282
S'only'
p283
aI143
aa(lp284
S'know'
p285
aI144
aa(lp286
S'involved'
p287
aI145
aa(lp288
S'Nieto'
p289
aI146
aa(lp290
S'after'
p291
aI147
aa(lp292
S'municipal'
p293
aI148
aa(lp294
S'than'
p295
aI149
aa(lp296
S'if'
p297
aI150
aa(lp298
S'federal'
p299
aI151
aa(lp300
S'order'
p301
aI152
aa(lp302
S'After'
p303
aI153
aa(lp304
S'DE'
p305
aI154
aa(lp306
S'another'
p307
aI155
aa(lp308
S'officers'
p309
aI156
aa(lp310
S'VICE'
p311
aI157
aa(lp312
S'mayor'
p313
aI158
aa(lp314
S'human'
p315
aI159
aa(lp316
S'Abarca'
p317
aI160
aa(lp318
S'City.'
p319
aI161
aa(lp320
S'But'
p321
aI162
aa(lp322
S'when'
p323
aI163
aa(lp324
S'until'
p325
aI164
aa(lp326
S'clandestine'
p327
aI165
aa(lp328
S'taken'
p329
aI166
aa(lp330
S'went'
p331
aI167
aa(lp332
S'Guerrero,'
p333
aI168
aa(lp334
S'buses'
p335
aI169
aa(lp336
S'_'
aI170
aa(lp337
S'three'
p338
aI171
aa(lp339
S'his'
p340
aI172
aa(lp341
S'began'
p342
aI173
aa(lp343
S'These'
p344
aI174
aa(lp345
S'men'
p346
aI175
aa(lp347
S'thrown'
p348
aI176
aa(lp349
S'four'
p350
aI177
aa(lp351
S'There'
p352
aI178
aa(lp353
S'people.'
p354
aI179
aa(lp355
S'down'
p356
aI180
aa(lp357
S'States.'
p358
aI181
aa(lp359
S'day,'
p360
aI182
aa(lp361
S'days'
p362
aI183
aa(lp363
S'looking'
p364
aI184
aa(lp365
S'missing,'
p366
aI185
aa(lp367
S'emerged'
p368
aI186
aa(lp369
S'may'
p370
aI187
aa(lp371
S'so'
p372
aI188
aa(lp373
S'tell'
p374
aI189
aa(lp375
S'traveled'
p376
aI190
aa(lp377
S'children'
p378
aI191
aa(lp379
S'arrested'
p380
aI192
aa(lp381
S'Guerrero'
p382
aI193
aa(lp383
S'here,'
p384
aI194
aa(lp385
S'cartel'
p386
aI195
aa(lp387
S'could'
p388
aI196
aa(lp389
S'Jose'
p390
aI197
aa(lp391
S'day'
p392
aI198
aa(lp393
S'Luis'
p394
aI199
aa(lp395
S'up.'
p396
aI200
aa(lp397
S'must'
p398
aI201
aa(lp399
S'You'
p400
aI202
aa(lp401
S'While'
p402
aI203
aa(lp403
S'missing.'
p404
aI204
aa(lp405
S'criminal'
p406
aI205
aa(lp407
S'here.'
p408
aI206
aa(lp409
S'So'
p410
aI207
aa(lp411
S'record'
p412
aI208
aa(lp413
S'attack,'
p414
aI209
aa(lp415
S'pits'
p416
aI210
aa(lp417
S'team'
p418
aI211
aa(lp419
S'years'
p420
aI212
aa(lp421
S'community'
p422
aI213
aa(lp423
S'disappeared,'
p424
aI214
aa(lp425
S'November'
p426
aI215
aa(lp427
S'-'
aI216
aa(lp428
S'someone'
p429
aI217
aa(lp430
S'Warriors'
p431
aI218
aa(lp432
S'once'
p433
aI219
aa(lp434
S'What'
p435
aI220
aa(lp436
S'us.'
p437
aI221
aa(lp438
S'UF'
p439
aI222
aa(lp440
S'might'
p441
aI223
aa(lp442
S'rights'
p443
aI224
aa(lp444
S'gathered'
p445
aI225
aa(lp446
S'student'
p447
aI226
aa(lp448
S'Enrique'
p449
aI227
aa(lp450
S'President'
p451
aI228
aa(lp452
S'case,'
p453
aI229
aa(lp454
S'me'
p455
aI230
aa(lp456
S'police.'
p457
aI231
aa(lp458
S'`'
aI232
aa(lp459
S'According'
p460
aI233
aa(lp461
S'anger'
p462
aI234
aa(lp463
S'sons'
p464
aI235
aa(lp465
S'few'
p466
aI236
aa(lp467
S'shooting'
p468
aI237
aa(lp469
S'l'
aI238
aa(lp470
S'up'
p471
aI239
aa(lp472
S'MISSING'
p473
aI240
aa(lp474
S'investigation.'
p475
aI241
aa(lp476
S'patrol'
p477
aI242
aa(lp478
S'September'
p479
aI243
aa(lp480
S'State'
p481
aI244
aa(lp482
S'H'
aI245
aa(lp483
S'phone.'
p484
aI246
aa(lp485
S'like'
p486
aI247
aa(lp487
S'remains.'
p488
aI248
aa(lp489
S'kill'
p490
aI249
aa(lp491
S'today.'
p492
aI250
aa(lp493
S'into'
p494
aI251
aa(lp495
S'show'
p496
aI252
aa(lp497
S'recorded'
p498
aI253
aa(lp499
S'GUERRERU'
p500
aI254
aa(lp501
S'city'
p502
aI255
aa(lp503
S'become'
p504
aI256
aa(lp505
S'point'
p506
aI257
aa(lp507
S'Why'
p508
aI258
aa(lp509
S'those'
p510
aI259
aa(lp511
S'river,'
p512
aI260
aa(lp513
S'Los'
p514
aI261
aa(lp515
S'up,'
p516
aI262
aa(lp517
S'burned'
p518
aI263
aa(lp519
S'alive,we'
p520
aI264
aa(lp521
S'One'
p522
aI265
aa(lp523
S'us,'
p524
aI266
aa(lp525
S'All'
p526
aI267
aa(lp527
S'sleep'
p528
aI268
aa(lp529
S'between'
p530
aI269
aa(lp531
S'mass'
p532
aI270
aa(lp533
S'most'
p534
aI271
aa(lp535
S'gave'
p536
aI272
aa(lp537
S'important'
p538
aI273
aa(lp539
S'graves'
p540
aI274
aa(lp541
S'hill,'
p542
aI275
aa(lp543
S'police,'
p544
aI276
aa(lp545
S'even'
p546
aI277
aa(lp547
S'Here'
p548
aI278
aa(lp549
S'Get'
p550
aI279
aa(lp551
S'questioned'
p552
aI280
aa(lp553
S'two'
p554
aI281
aa(lp555
S'How'
p556
aI282
aa(lp557
S"that's"
p558
aI283
aa(lp559
S'giving'
p560
aI284
aa(lp561
S'laying'
p562
aI285
aa(lp563
S'about'
p564
aI286
aa(lp565
S'something'
p566
aI287
aa(lp567
S'black'
p568
aI288
aa(lp569
S'struggle'
p570
aI289
aa(lp571
S"don't"
p572
aI290
aa(lp573
S'understand'
p574
aI291
aa(lp575
S'victims'
p576
aI292
aa(lp577
S'according'
p578
aI293
aa(lp579
S'march'
p580
aI294
aa(lp581
S'lack'
p582
aI295
aa(lp583
S'Behind'
p584
aI296
aa(lp585
S'come'
p586
aI297
aa(lp587
S'history'
p588
aI298
aa(lp589
S'midnight,'
p590
aI299
aa(lp591
S'facing'
p592
aI300
aa(lp593
S'focus'
p594
aI301
aa(lp595
S'fired'
p596
aI302
aa(lp597
S'bad'
p598
aI303
aa(lp599
S'courage'
p600
aI304
aa(lp601
S'National'
p602
aI305
aa(lp603
S'recent'
p604
aI306
aa(lp605
S'boys'
p606
aI307
aa(lp607
S'massacres'
p608
aI308
aa(lp609
S'Many'
p610
aI309
aa(lp611
S'organized'
p612
aI310
aa(lp613
S'town'
p614
aI311
aa(lp615
S'place,'
p616
aI312
aa(lp617
S'To'
p618
aI313
aa(lp619
S'practices'
p620
aI314
aa(lp621
S'anyone'
p622
aI315
aa(lp623
S'de'
p624
aI316
aa(lp625
S'told'
p626
aI317
aa(lp627
S'case'
p628
aI318
aa(lp629
S'crime?'
p630
aI319
aa(lp631
S'Ayotzinapa,'
p632
aI320
aa(lp633
S'called'
p634
aI321
aa(lp635
S'gasoline.'
p636
aI322
aa(lp637
S'school'
p638
aI323
aa(lp639
S"mayor's"
p640
aI324
aa(lp641
S'diesel'
p642
aI325
aa(lp643
S'meet'
p644
aI326
aa(lp645
S'pit,'
p646
aI327
aa(lp647
S'Since'
p648
aI328
aa(lp649
S'later,'
p650
aI329
aa(lp651
S'ravine.'
p652
aI330
aa(lp653
S'If'
p654
aI331
aa(lp655
S'throughout'
p656
aI332
aa(lp657
S'threw'
p658
aI333
aa(lp659
S'STUDENT'
p660
aI334
aa(lp661
S'among'
p662
aI335
aa(lp663
S'night'
p664
aI336
aa(lp665
S'thenkilled'
p666
aI337
aa(lp667
S'access'
p668
aI338
aa(lp669
S'second'
p670
aI339
aa(lp671
S'wife'
p672
aI340
aa(lp673
S'rid'
p674
aI341
aa(lp675
S'go'
p676
aI342
aa(lp677
S'garbage'
p678
aI343
aa(lp679
S'historically'
p680
aI344
aa(lp681
S'Chilpancingo,'
p682
aI345
aa(lp683
S'charge'
p684
aI346
aa(lp685
S'best'
p686
aI347
aa(lp687
S'GENERAL'
p688
aI348
aa(lp689
S'volunteers'
p690
aI349
aa(lp691
S'you,'
p692
aI350
aa(lp693
S'governor'
p694
aI351
aa(lp695
S'since'
p696
aI352
aa(lp697
S'groups'
p698
aI353
aa(lp699
S'Apparently'
p700
aI354
aa(lp701
S'government,'
p702
aI355
aa(lp703
S'poor'
p704
aI356
aa(lp705
S'experts.'
p706
aI357
aa(lp707
S'cartel,'
p708
aI358
aa(lp709
S'under'
p710
aI359
aa(lp711
S'sign'
p712
aI360
aa(lp713
S'trash'
p714
aI361
aa(lp715
S'22'
p716
aI362
aa(lp717
S'appointed,'
p718
aI363
aa(lp719
S'ashes'
p720
aI364
aa(lp721
S'noticed'
p722
aI365
aa(lp723
S'[MR'
p724
aI366
aa(lp725
S'Parents'
p726
aI367
aa(lp727
S'teachers.'
p728
aI368
aa(lp729
S'front,'
p730
aI369
aa(lp731
S'marked'
p732
aI370
aa(lp733
S'...'
p734
aI371
aa(lp735
S'much'
p736
aI372
aa(lp737
S'your'
p738
aI373
aa(lp739
S'press'
p740
aI374
aa(lp741
S'while'
p742
aI375
aa(lp743
S'video'
p744
aI376
aa(lp745
S'/'
aI377
aa(lp746
S'PEPE'
p747
aI378
aa(lp748
S'Forensic'
p749
aI379
aa(lp750
S'Argentine'
p751
aI380
aa(lp752
S'A'
aI381
aa(lp753
S'disappearance'
p754
aI382
aa(lp755
S'lit'
p756
aI383
aa(lp757
S'CITY'
p758
aI384
aa(lp759
S'picked'
p760
aI385
aa(lp761
S'relatives'
p762
aI386
aa(lp763
S'plasticbags,'
p764
aI387
aa(lp765
S'time'
p766
aI388
aa(lp767
S'MAURIIIIU'
p768
aI389
aa(lp769
S'already'
p770
aI390
aa(lp771
S'ERNMJ'
p772
aI391
aa(lp773
S'cars'
p774
aI392
aa(lp775
S'[1U'
p776
aI393
aa(lp777
S'peaceful'
p778
aI394
aa(lp779
S'am'
p780
aI395
aa(lp781
S'ANDREA'
p782
aI396
aa(lp783
S'EZ'
p784
aI397
aa(lp785
S'I]'
p786
aI398
aa(lp787
S'EL'
p788
aI399
aa(lp789
S'HI'
p790
aI400
aa(lp791
S'done,'
p792
aI401
aa(lp793
S'despair,'
p794
aI402
aa(lp795
S'six'
p796
aI403
aa(lp797
S'Most'
p798
aI404
aa(lp799
S'handed'
p800
aI405
aa(lp801
S'behind'
p802
aI406
aa(lp803
S'Rural'
p804
aI407
aa(lp805
S'Cocula,'
p806
aI408
aa(lp807
S'invited'
p808
aI409
aa(lp809
S'discovery'
p810
aI410
aa(lp811
S'official'
p812
aI411
aa(lp813
S'rule'
p814
aI412
aa(lp815
S'news.'
p816
aI413
aa(lp817
S'next'
p818
aI414
aa(lp819
S'protest'
p820
aI415
aa(lp821
S'acronym,'
p822
aI416
aa(lp823
S'finally'
p824
aI417
aa(lp825
S'feel'
p826
aI418
aa(lp827
S'Students.'
p828
aI419
aa(lp829
S'operation'
p830
aI420
aa(lp831
S'involves'
p832
aI421
aa(lp833
S'forthe'
p834
aI422
aa(lp835
S'By'
p836
aI423
aa(lp837
S'disappeared'
p838
aI424
aa(lp839
S'each'
p840
aI425
aa(lp841
S'bus'
p842
aI426
aa(lp843
S'Our'
p844
aI427
aa(lp845
S'At'
p846
aI428
aa(lp847
S'peers'
p848
aI429
aa(lp849
S'With'
p850
aI430
aa(lp851
S'schools'
p852
aI431
aa(lp853
S'information'
p854
aI432
aa(lp855
S'leave'
p856
aI433
aa(lp857
S'UPOEG.'
p858
aI434
aa(lp859
S'Students,'
p860
aI435
aa(lp861
S'Hey!'
p862
aI436
aa(lp863
S'responded'
p864
aI437
aa(lp865
S'interrogated'
p866
aI438
aa(lp867
S'current'
p868
aI439
aa(lp869
S'experts'
p870
aI440
aa(lp871
S'lasted'
p872
aI441
aa(lp873
S'friend'
p874
aI442
aa(lp875
S'crime'
p876
aI443
aa(lp877
S'number'
p878
aI444
aa(lp879
S'LA'
p880
aI445
aa(lp881
S'third'
p882
aI446
aa(lp883
S'occurred'
p884
aI447
aa(lp885
S'When'
p886
aI448
aa(lp887
S'processhas'
p888
aI449
aa(lp889
S"can't"
p890
aI450
aa(lp891
S'together'
p892
aI451
aa(lp893
S'identification'
p894
aI452
aa(lp895
S'El'
p896
aI453
aa(lp897
S'investigate'
p898
aI454
aa(lp899
S'ATIURNEY'
p900
aI455
aa(lp901
S'occurred.'
p902
aI456
aa(lp903
S'wonders'
p904
aI457
aa(lp905
S'hours,'
p906
aI458
aa(lp907
S'refused'
p908
aI459
aa(lp909
S'hands'
p910
aI460
aa(lp911
S'Congo,'
p912
aI461
aa(lp913
S'lock'
p914
aI462
aa(lp915
S'highway'
p916
aI463
aa(lp917
S'City'
p918
aI464
aa(lp919
S'Acapulco'
p920
aI465
aa(lp921
S'hours'
p922
aI466
aa(lp923
S'again,'
p924
aI467
aa(lp925
S'Salvador,'
p926
aI468
aa(lp927
S'|'
aI469
aa(lp928
S'living'
p929
aI470
aa(lp930
S'Pmmmsr:'
p931
aI471
aa(lp932
S'shot'
p933
aI472
aa(lp934
S'wanted'
p935
aI473
aa(lp936
S'Human'
p937
aI474
aa(lp938
S'Show'
p939
aI475
aa(lp940
S'unarmed'
p941
aI476
aa(lp942
S'angry,'
p943
aI477
aa(lp944
S'Until'
p945
aI478
aa(lp946
S'cities'
p947
aI479
aa(lp948
S'Colombia'
p949
aI480
aa(lp950
S'telling'
p951
aI481
aa(lp952
S'close'
p953
aI482
aa(lp954
S'possible'
p955
aI483
aa(lp956
S'soaked'
p957
aI484
aa(lp958
S'crime.'
p959
aI485
aa(lp960
S'elsewhere.'
p961
aI486
aa(lp962
S'asked'
p963
aI487
aa(lp964
S'justice'
p965
aI488
aa(lp966
S'Federal'
p967
aI489
aa(lp968
S'officials'
p969
aI490
aa(lp970
S'?'
aI491
aa(lp971
S'tendency'
p972
aI492
aa(lp973
S'doing'
p974
aI493
aa(lp975
S'focused'
p976
aI494
aa(lp977
S'killed.'
p978
aI495
aa(lp979
S'during'
p980
aI496
aa(lp981
S'school.'
p982
aI497
aa(lp983
S'almost'
p984
aI498
aa(lp985
S'Bosnia,'
p986
aI499
aa(lp987
S'him'
p988
aI500
aa(lp989
S'Then'
p990
aI501
aa(lp991
S'RUURIGUEZ'
p992
aI502
aa(lp993
S'although'
p994
aI503
aa(lp995
S'normalistas'
p996
aI504
aa(lp997
S'journalists'
p998
aI505
aa(lp999
S'civilians,'
p1000
aI506
aa(lp1001
S'promised'
p1002
aI507
aa(lp1003
S'Whatever'
p1004
aI508
aa(lp1005
S'survivors'
p1006
aI509
aa(lp1007
S'reflects'
p1008
aI510
aa(lp1009
S'before:'
p1010
aI511
aa(lp1011
S'saw'
p1012
aI512
aa(lp1013
S'seems'
p1014
aI513
aa(lp1015
S'voluntarily'
p1016
aI514
aa(lp1017
S'exhumation'
p1018
aI515
aa(lp1019
S'sure'
p1020
aI516
aa(lp1021
S','
aI517
aa(lp1022
S'results,'
p1023
aI518
aa(lp1024
S'authorities,'
p1025
aI519
aa(lp1026
S'press.'
p1027
aI520
aa(lp1028
S'left.'
p1029
aI521
aa(lp1030
S'demonstrate'
p1031
aI522
aa(lp1032
S'Here,'
p1033
aI523
aa(lp1034
S'completely'
p1035
aI524
aa(lp1036
S'chaotic.'
p1037
aI525
aa(lp1038
S'returned'
p1039
aI526
aa(lp1040
S'out,'
p1041
aI527
aa(lp1042
S'got'
p1043
aI528
aa(lp1044
S'Cocula'
p1045
aI529
aa(lp1046
S'ideology'
p1047
aI530
aa(lp1048
S'Zocalo,'
p1049
aI531
aa(lp1050
S'probably'
p1051
aI532
aa(lp1052
S'being'
p1053
aI533
aa(lp1054
S'traces'
p1055
aI534
aa(lp1056
S'victims,'
p1057
aI535
aa(lp1058
S'beginning'
p1059
aI536
aa(lp1060
S'hangar,'
p1061
aI537
aa(lp1062
S'Before'
p1063
aI538
aa(lp1064
S'accepting'
p1065
aI539
aa(lp1066
S'identified,'
p1067
aI540
aa(lp1068
S'happened.'
p1069
aI541
aa(lp1070
S'involved,'
p1071
aI542
aa(lp1072
S'Although'
p1073
aI543
aa(lp1074
S'Palace.'
p1075
aI544
aa(lp1076
S'150'
p1077
aI545
aa(lp1078
S'door'
p1079
aI546
aa(lp1080
S'beat'
p1081
aI547
aa(lp1082
S"It's"
p1083
aI548
aa(lp1084
S'involvement'
p1085
aI549
aa(lp1086
S'restricted'
p1087
aI550
aa(lp1088
S'citizens'
p1089
aI551
aa(lp1090
S'concrete'
p1091
aI552
aa(lp1092
S'away'
p1093
aI553
aa(lp1094
S'Attorney'
p1095
aI554
aa(lp1096
S'DELGADU'
p1097
aI555
aa(lp1098
S'4,'
p1099
aI556
aa(lp1100
S'former'
p1101
aI557
aa(lp1102
S'EZCamera'
p1103
aI558
aa(lp1104
S'house,'
p1105
aI559
aa(lp1106
S'beginning.'
p1107
aI560
aa(lp1108
S'question'
p1109
aI561
aa(lp1110
S'coming'
p1111
aI562
aa(lp1112
S"aren't"
p1113
aI563
aa(lp1114
S'ambush'
p1115
aI564
aa(lp1116
S'impunity.'
p1117
aI565
aa(lp1118
S'month,'
p1119
aI566
aa(lp1120
S'U'
aI567
aa(lp1121
S'attack.'
p1122
aI568
aa(lp1123
S'enraged,'
p1124
aI569
aa(lp1125
S'president'
p1126
aI570
aa(lp1127
S'Angel'
p1128
aI571
aa(lp1129
S'IMENEZ'
p1130
aI572
aa(lp1131
S'Students'
p1132
aI573
aa(lp1133
S'alive,'
p1134
aI574
aa(lp1135
S'colluding,'
p1136
aI575
aa(lp1137
S'suitcases.'
p1138
aI576
aa(lp1139
S'shoes,'
p1140
aI577
aa(lp1141
S'here.Their'
p1142
aI578
aa(lp1143
S'fact,'
p1144
aI579
aa(lp1145
S'thedrug'
p1146
aI580
aa(lp1147
S'Mexico.'
p1148
aI581
aa(lp1149
S'Pinos.'
p1150
aI582
aa(lp1151
S'protesters'
p1152
aI583
aa(lp1153
S'cartels'
p1154
aI584
aa(lp1155
S'now,'
p1156
aI585
aa(lp1157
S'abandoned'
p1158
aI586
aa(lp1159
S'top'
p1160
aI587
aa(lp1161
S'IGUALA,'
p1162
aI588
aa(lp1163
S'practice'
p1164
aI589
aa(lp1165
S'towns.'
p1166
aI590
aa(lp1167
S'MEXICO'
p1168
aI591
aa(lp1169
S'peopleand'
p1170
aI592
aa(lp1171
S'days,'
p1172
aI593
aa(lp1173
S'common.'
p1174
aI594
aa(lp1175
S'later'
p1176
aI595
aa(lp1177
S'Ul-'
p1178
aI596
aa(lp1179
S'this.'
p1180
aI597
aa(lp1181
S'makes'
p1182
aI598
aa(lp1183
S'cemetery.'
p1184
aI599
aa(lp1185
S'over'
p1186
aI600
aa(lp1187
S'protests'
p1188
aI601
aa(lp1189
S'places'
p1190
aI602
aa(lp1191
S'intention'
p1192
aI603
aa(lp1193
S'Searching'
p1194
aI604
aa(lp1195
S'building,'
p1196
aI605
aa(lp1197
S'Police'
p1198
aI606
aa(lp1199
S'related'
p1200
aI607
aa(lp1201
S'locals'
p1202
aI608
aa(lp1203
S'Ernesto'
p1204
aI609
aa(lp1205
S'attacks'
p1206
aI610
aa(lp1207
S'toward'
p1208
aI611
aa(lp1209
S'should'
p1210
aI612
aa(lp1211
S'buried'
p1212
aI613
aa(lp1213
S'prosecutor,'
p1214
aI614
aa(lp1215
S'San'
p1216
aI615
aa(lp1217
S'news'
p1218
aI616
aa(lp1219
S'dying!'
p1220
aI617
aa(lp1221
S'far'
p1222
aI618
aa(lp1223
S'others.'
p1224
aI619
aa(lp1225
S'government.'
p1226
aI620
aa(lp1227
S'oppressed.'
p1228
aI621
aa(lp1229
S'political'
p1230
aI622
aa(lp1231
S'NEWS'
p1232
aI623
aa(lp1233
S'dead.'
p1234
aI624
aa(lp1235
S'country.'
p1236
aI625
aa(lp1237
S'did'
p1238
aI626
aa(lp1239
S'ten'
p1240
aI627
aa(lp1241
S'thousand'
p1242
aI628
aa(lp1243
S'search.'
p1244
aI629
aa(lp1245
S'family'
p1246
aI630
aa(lp1247
S'ties'
p1248
aI631
aa(lp1249
S'la'
p1250
aI632
aa(lp1251
S'buses.'
p1252
aI633
aa(lp1253
S'Peria!'
p1254
aI634
aa(lp1255
S'drug'
p1256
aI635
aa(lp1257
S'sayabout'
p1258
aI636
aa(lp1259
S'anything'
p1260
aI637
aa(lp1261
S'GERARUIJ'
p1262
aI638
aa(lp1263
S'would,'
p1264
aI639
aa(lp1265
S'theory,'
p1266
aI640
aa(lp1267
S'line'
p1268
aI641
aa(lp1269
S'research,'
p1270
aI642
aa(lp1271
S'look'
p1272
aI643
aa(lp1273
S'us,they'
p1274
aI644
aa(lp1275
S'received'
p1276
aI645
aa(lp1277
S'crimeperpetrated'
p1278
aI646
aa(lp1279
S'state,'
p1280
aI647
aa(lp1281
S'studentsfrom'
p1282
aI648
aa(lp1283
S'discovered'
p1284
aI649
aa(lp1285
S'questions.'
p1286
aI650
aa(lp1287
S'Interrogated,'
p1288
aI651
aa(lp1289
S'Aguirre,'
p1290
aI652
aa(lp1291
S'trucks.'
p1292
aI653
aa(lp1293
S'andthen'
p1294
aI654
aa(lp1295
S'material'
p1296
aI655
aa(lp1297
S'supporters'
p1298
aI656
aa(lp1299
S'defenders'
p1300
aI657
aa(lp1301
S'11,'
p1302
aI658
aa(lp1303
S'interrogations,'
p1304
aI659
aa(lp1305
S'GUVERNUR'
p1306
aI660
aa(lp1307
S'GUERRERUaccording'
p1308
aI661
aa(lp1309
S'totaled'
p1310
aI662
aa(lp1311
S'patrols'
p1312
aI663
aa(lp1313
S'born'
p1314
aI664
aa(lp1315
S"HERHANUEZr-'IUISES"
p1316
aI665
aa(lp1317
S'insisted'
p1318
aI666
aa(lp1319
S'HuRms|s|'
p1320
aI667
aa(lp1321
S'For'
p1322
aI668
aa(lp1323
S'emotions'
p1324
aI669
aa(lp1325
S'shifted'
p1326
aI670
aa(lp1327
S'ones'
p1328
aI671
aa(lp1329
S'mwaREs'
p1330
aI672
aa(lp1331
S'Sons'
p1332
aI673
aa(lp1333
S'lives'
p1334
aI674
aa(lp1335
S'sons.'
p1336
aI675
aa(lp1337
S'willing'
p1338
aI676
aa(lp1339
S'arms,'
p1340
aI677
aa(lp1341
S'protect'
p1342
aI678
aa(lp1343
S'mayors'
p1344
aI679
aa(lp1345
S'statement'
p1346
aI680
aa(lp1347
S'Based'
p1348
aI681
aa(lp1349
S'turned'
p1350
aI682
aa(lp1351
S'43.'
p1352
aI683
aa(lp1353
S'exhausted,'
p1354
aI684
aa(lp1355
S'Parents,'
p1356
aI685
aa(lp1357
S'anger,'
p1358
aI686
aa(lp1359
S'soundly.'
p1360
aI687
aa(lp1361
S'answer'
p1362
aI688
aa(lp1363
S'able'
p1364
aI689
aa(lp1365
S'youwill'
p1366
aI690
aa(lp1367
S'on,'
p1368
aI691
aa(lp1369
S'doubt'
p1370
aI692
aa(lp1371
S'Obvioust'
p1372
aI693
aa(lp1373
S'parents,with'
p1374
aI694
aa(lp1375
S'pain'
p1376
aI695
aa(lp1377
S'Three'
p1378
aI696
aa(lp1379
S'More'
p1380
aI697
aa(lp1381
S'traveling'
p1382
aI698
aa(lp1383
S'taxi'
p1384
aI699
aa(lp1385
S'results.'
p1386
aI700
aa(lp1387
S'meeting'
p1388
aI701
aa(lp1389
S'Pinos'
p1390
aI702
aa(lp1391
S'document'
p1392
aI703
aa(lp1393
S'29,'
p1394
aI704
aa(lp1395
S'ever,'
p1396
aI705
aa(lp1397
S'frustrated'
p1398
aI706
aa(lp1399
S'attention'
p1400
aI707
aa(lp1401
S'landfill'
p1402
aI708
aa(lp1403
S'Governor,'
p1404
aI709
aa(lp1405
S'social'
p1406
aI710
aa(lp1407
S'were,'
p1408
aI711
aa(lp1409
S'needs'
p1410
aI712
aa(lp1411
S'Officer!Our'
p1412
aI713
aa(lp1413
S'States,'
p1414
aI714
aa(lp1415
S'Authorities'
p1416
aI715
aa(lp1417
S'culprits'
p1418
aI716
aa(lp1419
S'led'
p1420
aI717
aa(lp1421
S'vans'
p1422
aI718
aa(lp1423
S'Cocula.'
p1424
aI719
aa(lp1425
S'enter,'
p1426
aI720
aa(lp1427
S'protests.'
p1428
aI721
aa(lp1429
S'necessary'
p1430
aI722
aa(lp1431
S'open'
p1432
aI723
aa(lp1433
S'locked'
p1434
aI724
aa(lp1435
S'gate.'
p1436
aI725
aa(lp1437
S'marched'
p1438
aI726
aa(lp1439
S'22,'
p1440
aI727
aa(lp1441
S'movements,'
p1442
aI728
aa(lp1443
S'homicide'
p1444
aI729
aa(lp1445
S'area.'
p1446
aI730
aa(lp1447
S'discredit'
p1448
aI731
aa(lp1449
S'ambulance.'
p1450
aI732
aa(lp1451
S'suspected'
p1452
aI733
aa(lp1453
S'mall'
p1454
aI734
aa(lp1455
S'members'
p1456
aI735
aa(lp1457
S'Guerreros'
p1458
aI736
aa(lp1459
S'there,'
p1460
aI737
aa(lp1461
S'phones.'
p1462
aI738
aa(lp1463
S'mobile'
p1464
aI739
aa(lp1465
S'televisions'
p1466
aI740
aa(lp1467
S'fled'
p1468
aI741
aa(lp1469
S'ransacked.'
p1470
aI742
aa(lp1471
S'linked'
p1472
aI743
aa(lp1473
S'REUTERSAP'
p1474
aI744
aa(lp1475
S'44'
p1476
aI745
aa(lp1477
S'normal'
p1478
aI746
aa(lp1479
S'areas'
p1480
aI747
aa(lp1481
S'Murillo'
p1482
aI748
aa(lp1483
S'established'
p1484
aI749
aa(lp1485
S'train'
p1486
aI750
aa(lp1487
S'LUCERU'
p1488
aI751
aa(lp1489
S'future'
p1490
aI752
aa(lp1491
S'forefront'
p1492
aI753
aa(lp1493
S'"EL'
p1494
aI754
aa(lp1495
S'against'
p1496
aI755
aa(lp1497
S'peacefully.'
p1498
aI756
aa(lp1499
S'normalistas.'
p1500
aI757
aa(lp1501
S'powerful'
p1502
aI758
aa(lp1503
S'editorials'
p1504
aI759
aa(lp1505
S'conspiracy'
p1506
aI760
aa(lp1507
S'theories,'
p1508
aI761
aa(lp1509
S'run'
p1510
aI762
aa(lp1511
S'dozens'
p1512
aI763
aa(lp1513
S'general'
p1514
aI764
aa(lp1515
S'population'
p1516
aI765
aa(lp1517
S'version?'
p1518
aI766
aa(lp1519
S'warriors'
p1520
aI767
aa(lp1521
S'multiple'
p1522
aI768
aa(lp1523
S'least'
p1524
aI769
aa(lp1525
S'territory'
p1526
aI770
aa(lp1527
S'area'
p1528
aI771
aa(lp1529
S'men,'
p1530
aI772
aa(lp1531
S'grave'
p1532
aI773
aa(lp1533
S'me,'
p1534
aI774
aa(lp1535
S'policing.'
p1536
aI775
aa(lp1537
S'teachers'
p1538
aI776
aa(lp1539
S'articles,'
p1540
aI777
aa(lp1541
S'arose'
p1542
aI778
aa(lp1543
S'WEBER'
p1544
aI779
aa(lp1545
S'Une'
p1546
aI780
aa(lp1547
S'JASUN'
p1548
aI781
aa(lp1549
S'passed'
p1550
aI782
aa(lp1551
S'broke'
p1552
aI783
aa(lp1553
S'demonstrators,'
p1554
aI784
aa(lp1555
S'torched'
p1556
aI785
aa(lp1557
S'again'
p1558
aI786
aa(lp1559
S'Government'
p1560
aI787
aa(lp1561
S'Palace'
p1562
aI788
aa(lp1563
S'Today'
p1564
aI789
aa(lp1565
S'people,'
p1566
aI790
aa(lp1567
S'crimes'
p1568
aI791
aa(lp1569
S'defenders,'
p1570
aI792
aa(lp1571
S'waiting'
p1572
aI793
aa(lp1573
S'ALUI'
p1574
aI794
aa(lp1575
S'SURDUSH'
p1576
aI795
aa(lp1577
S'impunity'
p1578
aI796
aa(lp1579
S'lies'
p1580
aI797
aa(lp1581
S'authoritariangovernment,'
p1582
aI798
aa(lp1583
S'Uriel'
p1584
aI799
aa(lp1585
S'Gomez,'
p1586
aI800
aa(lp1587
S'without'
p1588
aI801
aa(lp1589
S'bleeding'
p1590
aI802
aa(lp1591
S'30,'
p1592
aI803
aa(lp1593
S'injured'
p1594
aI804
aa(lp1595
S'money.'
p1596
aI805
aa(lp1597
S'within'
p1598
aI806
aa(lp1599
S'operator'
p1600
aI807
aa(lp1601
S'running?'
p1602
aI808
aa(lp1603
S'worth'
p1604
aI809
aa(lp1605
S'idea'
p1606
aI810
aa(lp1607
S'blocks'
p1608
aI811
aa(lp1609
S'agreed'
p1610
aI812
aa(lp1611
S'danced'
p1612
aI813
aa(lp1613
S'systems'
p1614
aI814
aa(lp1615
S'world.'
p1616
aI815
aa(lp1617
S'Pineda'
p1618
aI816
aa(lp1619
S'As'
p1620
aI817
aa(lp1621
S'wife,'
p1622
aI818
aa(lp1623
S'investigated.'
p1624
aI819
aa(lp1625
S'event'
p1626
aI820
aa(lp1627
S'requested'
p1628
aI821
aa(lp1629
S'license'
p1630
aI822
aa(lp1631
S'rooms'
p1632
aI823
aa(lp1633
S'school,'
p1634
aI824
aa(lp1635
S'Camera'
p1636
aI825
aa(lp1637
S"A'r1ELlSS11IJELPIJZUArfm'n'mzaf"
p1638
aI826
aa(lp1639
S'London,'
p1640
aI827
aa(lp1641
S'Barcelona,'
p1642
aI828
aa(lp1643
S"Fixer'"
p1644
aI829
aa(lp1645
S'ITA'
p1646
aI830
aa(lp1647
S'\xe2\x80\x8b\xe2\x80\x8bNew'
p1648
aI831
aa(lp1649
S'NEIELAALBERTEI'
p1650
aI832
aa(lp1651
S'Delhi,'
p1652
aI833
aa(lp1653
S'PmrffmfmrrAsxmfanr'
p1654
aI834
aa(lp1655
S'DAN'
p1656
aI835
aa(lp1657
S'Bangkok,'
p1658
aI836
aa(lp1659
S'Avenue'
p1660
aI837
aa(lp1661
S'AYOTZINAPA'
p1662
aI838
aa(lp1663
S'symbolic'
p1664
aI839
aa(lp1665
S'HHS!'
p1666
aI840
aa(lp1667
S'IUMI'
p1668
aI841
aa(lp1669
S'fig-.m'
p1670
aI842
aa(lp1671
S'94%'
p1672
aI843
aa(lp1673
S'convoy'
p1674
aI844
aa(lp1675
S'IAIIIIE'
p1676
aI845
aa(lp1677
S'iron'
p1678
aI846
aa(lp1679
S'both'
p1680
aI847
aa(lp1681
S'innocent'
p1682
aI848
aa(lp1683
S'Duva'
p1684
aI849
aa(lp1685
S'huasaco'
p1686
aI850
aa(lp1687
S'side'
p1688
aI851
aa(lp1689
S'another.'
p1690
aI852
aa(lp1691
S'ordersto'
p1692
aI853
aa(lp1693
S'26'
p1694
aI854
aa(lp1695
S'national'
p1696
aI855
aa(lp1697
S'respond.'
p1698
aI856
aa(lp1699
S'problems,'
p1700
aI857
aa(lp1701
S'examined'
p1702
aI858
aa(lp1703
S'area,they'
p1704
aI859
aa(lp1705
S'bone'
p1706
aI860
aa(lp1707
S"I'm"
p1708
aI861
aa(lp1709
S'bathed'
p1710
aI862
aa(lp1711
S'leaveor'
p1712
aI863
aa(lp1713
S'fuck'
p1714
aI864
aa(lp1715
S'memory'
p1716
aI865
aa(lp1717
S'surviving'
p1718
aI866
aa(lp1719
S'father'
p1720
aI867
aa(lp1721
S'graduate'
p1722
aI868
aa(lp1723
S'LILY'
p1724
aI869
aa(lp1725
S'us?'
p1726
aI870
aa(lp1727
S'Fmrfucrmu'
p1728
aI871
aa(lp1729
S'Back'
p1730
aI872
aa(lp1731
S'solution'
p1732
aI873
aa(lp1733
S'rocks'
p1734
aI874
aa(lp1735
S'circle.'
p1736
aI875
aa(lp1737
S'above'
p1738
aI876
aa(lp1739
S'rim'
p1740
aI877
aa(lp1741
S'boss'
p1742
aI878
aa(lp1743
S'revolutionary'
p1744
aI879
aa(lp1745
S'messages,'
p1746
aI880
aa(lp1747
S'weapons,'
p1748
aI881
aa(lp1749
S'SIIIIHIIBIAN'
p1750
aI882
aa(lp1751
S'too'
p1752
aI883
aa(lp1753
S'results'
p1754
aI884
aa(lp1755
S'defend'
p1756
aI885
aa(lp1757
S'external'
p1758
aI886
aa(lp1759
S'opened'
p1760
aI887
aa(lp1761
S'Burgos,'
p1762
aI888
aa(lp1763
S'situation.'
p1764
aI889
aa(lp1765
S'Just'
p1766
aI890
aa(lp1767
S'assure'
p1768
aI891
aa(lp1769
S'[Anthropology]'
p1770
aI892
aa(lp1771
S'hundred'
p1772
aI893
aa(lp1773
S'clothes,'
p1774
aI894
aa(lp1775
S'stuff'
p1776
aI895
aa(lp1777
S'[the'
p1778
aI896
aa(lp1779
S'Asst.'
p1780
aI897
aa(lp1781
S'shows'
p1782
aI898
aa(lp1783
S'team,'
p1784
aI899
aa(lp1785
S'Isidro'
p1786
aI900
aa(lp1787
S'Shooting'
p1788
aI901
aa(lp1789
S'Team,'
p1790
aI902
aa(lp1791
S'Ra\xc3\xbal'
p1792
aI903
aa(lp1793
S'l-UIU'
p1794
aI904
aa(lp1795
S'murals'
p1796
aI905
aa(lp1797
S'guy'
p1798
aI906
aa(lp1799
S'Lucio'
p1800
aI907
aa(lp1801
S'so.'
p1802
aI908
aa(lp1803
S'acts.'
p1804
aI909
aa(lp1805
S'moments'
p1806
aI910
aa(lp1807
S'Cabanas,'
p1808
aI911
aa(lp1809
S'want,but'
p1810
aI912
aa(lp1811
S'Clashes'
p1812
aI913
aa(lp1813
S'else'
p1814
aI914
aa(lp1815
S'abandoned,'
p1816
aI915
aa(lp1817
S'happy,'
p1818
aI916
aa(lp1819
S'together,'
p1820
aI917
aa(lp1821
S'historical'
p1822
aI918
aa(lp1823
S'longer'
p1824
aI919
aa(lp1825
S'Independence'
p1826
aI920
aa(lp1827
S'station'
p1828
aI921
aa(lp1829
S'us,all'
p1830
aI922
aa(lp1831
S'Paseo'
p1832
aI923
aa(lp1833
S'Sleep'
p1834
aI924
aa(lp1835
S'-f'
p1836
aI925
aa(lp1837
S'intervened.'
p1838
aI926
aa(lp1839
S"llIl-UnABARCA'S"
p1840
aI927
aa(lp1841
S'establishing'
p1842
aI928
aa(lp1843
S'I-UU'
p1844
aI929
aa(lp1845
S'enough.'
p1846
aI930
aa(lp1847
S'MISSING:'
p1848
aI931
aa(lp1849
S'Itells'
p1850
aI932
aa(lp1851
S'THE'
p1852
aI933
aa(lp1853
S'everything.'
p1854
aI934
aa(lp1855
S'graduated'
p1856
aI935
aa(lp1857
S'padlock'
p1858
aI936
aa(lp1859
S'desperationof'
p1860
aI937
aa(lp1861
S'endorses'
p1862
aI938
aa(lp1863
S'teachers,'
p1864
aI939
aa(lp1865
S'street,'
p1866
aI940
aa(lp1867
S'direction'
p1868
aI941
aa(lp1869
S"sUFI'A"
p1870
aI942
aa(lp1871
S'petrol'
p1872
aI943
aa(lp1873
S'field'
p1874
aI944
aa(lp1875
S'\\'
aI945
aa(lp1876
S'anyone,'
p1877
aI946
aa(lp1878
S'working'
p1879
aI947
aa(lp1880
S'alive]'
p1881
aI948
aa(lp1882
S'period'
p1883
aI949
aa(lp1884
S'Tlachinollan'
p1885
aI950
aa(lp1886
S'main'
p1887
aI951
aa(lp1888
S'seeing'
p1889
aI952
aa(lp1890
S"friends'"
p1891
aI953
aa(lp1892
S'street'
p1893
aI954
aa(lp1894
S'learn'
p1895
aI955
aa(lp1896
S'avenue.'
p1897
aI956
aa(lp1898
S'IUUl-l'
p1899
aI957
aa(lp1900
S'Rights'
p1901
aI958
aa(lp1902
S'Center'
p1903
aI959
aa(lp1904
S'.'
aI960
aa(lp1905
S'laughing.'
p1906
aI961
aa(lp1907
S'alive.Maybe'
p1908
aI962
aa(lp1909
S'says'
p1910
aI963
aa(lp1911
S'events'
p1912
aI964
aa(lp1913
S'wants'
p1914
aI965
aa(lp1915
S'serious'
p1916
aI966
aa(lp1917
S'up.Our'
p1918
aI967
aa(lp1919
S'violations'
p1920
aI968
aa(lp1921
S'School.'
p1922
aI969
aa(lp1923
S'allow'
p1924
aI970
aa(lp1925
S'seeking'
p1926
aI971
aa(lp1927
S'STUDENTby'
p1928
aI972
aa(lp1929
S'ARGENTINE'
p1930
aI973
aa(lp1931
S'studies,'
p1932
aI974
aa(lp1933
S'definitely'
p1934
aI975
aa(lp1935
S'blaming'
p1936
aI976
aa(lp1937
S'governance'
p1938
aI977
aa(lp1939
S'law'
p1940
aI978
aa(lp1941
S'haveasked'
p1942
aI979
aa(lp1943
S'level,'
p1944
aI980
aa(lp1945
S'scene.'
p1946
aI981
aa(lp1947
S'Masked'
p1948
aI982
aa(lp1949
S'looted'
p1950
aI983
aa(lp1951
S'_is'
p1952
aI984
aa(lp1953
S"aren't,"
p1954
aI985
aa(lp1955
S'mainly'
p1956
aI986
aa(lp1957
S'leastbe'
p1958
aI987
aa(lp1959
S'son'
p1960
aI988
aa(lp1961
S'hall'
p1962
aI989
aa(lp1963
S'clear'
p1964
aI990
aa(lp1965
S'Local'
p1966
aI991
aa(lp1967
S'residents'
p1968
aI992
aa(lp1969
S'expert,'
p1970
aI993
aa(lp1971
S'speculate'
p1972
aI994
aa(lp1973
S'biohazard.'
p1974
aI995
aa(lp1975
S'sent'
p1976
aI996
aa(lp1977
S'waste'
p1978
aI997
aa(lp1979
S'far,'
p1980
aI998
aa(lp1981
S'(EMF)'
p1982
aI999
aa(lp1983
S'Anthropology'
p1984
aI1000
aa(lp1985
S"who's"
p1986
aI1001
aa(lp1987
S'dismantle'
p1988
aI1002
aa(lp1989
S'SURVIVING'
p1990
aI1003
aa(lp1991
S'UI\\UI-FATHER'
p1992
aI1004
aa(lp1993
S'campaigns.'
p1994
aI1005
aa(lp1995
S'criminals]during'
p1996
aI1006
aa(lp1997
S'[by'
p1998
aI1007
aa(lp1999
S'sponsored'
p2000
aI1008
aa(lp2001
S'killing'
p2002
aI1009
aa(lp2003
S'disappearing'
p2004
aI1010
aa(lp2005
S'him,but'
p2006
aI1011
aa(lp2007
S'here?'
p2008
aI1012
aa(lp2009
S'really,'
p2010
aI1013
aa(lp2011
S'Team'
p2012
aI1014
aa(lp2013
S'watching'
p2014
aI1015
aa(lp2015
S'announced'
p2016
aI1016
aa(lp2017
S'none'
p2018
aI1017
aa(lp2019
S'root'
p2020
aI1018
aa(lp2021
S'28'
p2022
aI1019
aa(lp2023
S'phone'
p2024
aI1020
aa(lp2025
S'guys'
p2026
aI1021
aa(lp2027
S'faced'
p2028
aI1022
aa(lp2029
S'challenges'
p2030
aI1023
aa(lp2031
S'country,'
p2032
aI1024
aa(lp2033
S'else.'
p2034
aI1025
aa(lp2035
S'grave.'
p2036
aI1026
aa(lp2037
S'studying'
p2038
aI1027
aa(lp2039
S'bean'
p2040
aI1028
aa(lp2041
S'production'
p2042
aI1029
aa(lp2043
S'help'
p2044
aI1030
aa(lp2045
S'hopes'
p2046
aI1031
aa(lp2047
S'hills'
p2048
aI1032
aa(lp2049
S'volunteer'
p2050
aI1033
aa(lp2051
S'disappeared.'
p2052
aI1034
aa(lp2053
S'before'
p2054
aI1035
aa(lp2055
S'solutionsfor'
p2056
aI1036
aa(lp2057
S'connection'
p2058
aI1037
aa(lp2059
S'28,'
p2060
aI1038
aa(lp2061
S'poppy'
p2062
aI1039
aa(lp2063
S'marijuana'
p2064
aI1040
aa(lp2065
S'Reforma,'
p2066
aI1041
aa(lp2067
S'continue'
p2068
aI1042
aa(lp2069
S'report'
p2070
aI1043
aa(lp2071
S'office'
p2072
aI1044
aa(lp2073
S'honest,'
p2074
aI1045
aa(lp2075
S'investigators,'
p2076
aI1046
aa(lp2077
S'N'
aI1047
aa(lp2078
S'2015.'
p2079
aI1048
aa(lp2080
S'candidate'
p2081
aI1049
aa(lp2082
S'himself'
p2083
aI1050
aa(lp2084
S'launch'
p2085
aI1051
aa(lp2086
S'support'
p2087
aI1052
aa(lp2088
S'FATHER'
p2089
aI1053
aa(lp2090
S'freely.'
p2091
aI1054
aa(lp2092
S'investigations'
p2093
aI1055
aa(lp2094
S'elementary'
p2095
aI1056
aa(lp2096
S'gone'
p2097
aI1057
aa(lp2098
S'teacher.'
p2099
aI1058
aa(lp2100
S'know.'
p2101
aI1059
aa(lp2102
S'police,like'
p2103
aI1060
aa(lp2104
S'met'
p2105
aI1061
aa(lp2106
S'walk'
p2107
aI1062
aa(lp2108
S'victim'
p2109
aI1063
aa(lp2110
S'Comercial'
p2111
aI1064
aa(lp2112
S'Mexicana'
p2113
aI1065
aa(lp2114
S'mess.'
p2115
aI1066
aa(lp2116
S'having'
p2117
aI1067
aa(lp2118
S'thousands'
p2119
aI1068
aa(lp2120
S'navy'
p2121
aI1069
aa(lp2122
S'attempt'
p2123
aI1070
aa(lp2124
S'neither'
p2125
aI1071
aa(lp2126
S'find'
p2127
aI1072
aa(lp2128
S'useless'
p2129
aI1073
aa(lp2130
S'time,'
p2131
aI1074
aa(lp2132
S'23,'
p2133
aI1075
aa(lp2134
S'Governor'
p2135
aI1076
aa(lp2136
S'Aguirre'
p2137
aI1077
aa(lp2138
S'replied'
p2139
aI1078
aa(lp2140
S'relinquishing'
p2141
aI1079
aa(lp2142
S'position,'
p2143
aI1080
aa(lp2144
S'said,'
p2145
aI1081
aa(lp2146
S'TEAM'
p2147
aI1082
aa(lp2148
S'Now,'
p2149
aI1083
aa(lp2150
S'high'
p2151
aI1084
aa(lp2152
S'bridge'
p2153
aI1085
aa(lp2154
S'Juan.'
p2155
aI1086
aa(lp2156
S'towns'
p2157
aI1087
aa(lp2158
S'Rio'
p2159
aI1088
aa(lp2160
S'controlled'
p2161
aI1089
aa(lp2162
S'law,'
p2163
aI1090
aa(lp2164
S"Canfmnamr'"
p2165
aI1091
aa(lp2166
S'isa'
p2167
aI1092
aa(lp2168
S'Juan'
p2169
aI1093
aa(lp2170
S'parents,so'
p2171
aI1094
aa(lp2172
S'fifteen'
p2173
aI1095
aa(lp2174
S'bonfire'
p2175
aI1096
aa(lp2176
S'light'
p2177
aI1097
aa(lp2178
S'system'
p2179
aI1098
aa(lp2180
S'demonstration'
p2181
aI1099
aa(lp2182
S'15'
p2183
aI1100
aa(lp2184
S'ravine]and'
p2185
aI1101
aa(lp2186
S'pain.'
p2187
aI1102
aa(lp2188
S'play'
p2189
aI1103
aa(lp2190
S'Same'
p2191
aI1104
aa(lp2192
S'destabilize'
p2193
aI1105
aa(lp2194
S'burned.'
p2195
aI1106
aa(lp2196
S'described'
p2197
aI1107
aa(lp2198
S'pro-government'
p2199
aI1108
aa(lp2200
S'create'
p2201
aI1109
aa(lp2202
S'detainees'
p2203
aI1110
aa(lp2204
S'guerrillas'
p2205
aI1111
aa(lp2206
S'trying'
p2207
aI1112
aa(lp2208
S'matter'
p2209
aI1113
aa(lp2210
S'execution,'
p2211
aI1114
aa(lp2212
S'questionable'
p2213
aI1115
aa(lp2214
S'confrontation'
p2215
aI1116
aa(lp2216
S'early,'
p2217
aI1117
aa(lp2218
S'nothing'
p2219
aI1118
aa(lp2220
S'justify'
p2221
aI1119
aa(lp2222
S'massive'
p2223
aI1120
aa(lp2224
S'extrajudicial'
p2225
aI1121
aa(lp2226
S'[into'
p2227
aI1122
aa(lp2228
S'Then,'
p2229
aI1123
aa(lp2230
S'dangerous.'
p2231
aI1124
aa(lp2232
S'Monument'
p2233
aI1125
aa(lp2234
S'including'
p2235
aI1126
aa(lp2236
S'basic.'
p2237
aI1127
aa(lp2238
S"STUDENTSPRIJI'JIETEU"
p2239
aI1128
aa(lp2240
S'transform'
p2241
aI1129
aa(lp2242
S'frustration'
p2243
aI1130
aa(lp2244
S'ambulance,'
p2245
aI1131
aa(lp2246
S'conference'
p2247
aI1132
aa(lp2248
S'CASTILLU'
p2249
aI1133
aa(lp2250
S'shoot'
p2251
aI1134
aa(lp2252
S'Flag,'
p2253
aI1135
aa(lp2254
S'Eamem.-"l"rfiff?r'
p2255
aI1136
aa(lp2256
S'IUAN'
p2257
aI1137
aa(lp2258
S'ur'
p2259
aI1138
aa(lp2260
S'boarded'
p2261
aI1139
aa(lp2262
S'MN'
p2263
aI1140
aa(lp2264
S'patrols.'
p2265
aI1141
aa(lp2266
S'unanswered,'
p2267
aI1142
aa(lp2268
S'questions'
p2269
aI1143
aa(lp2270
S'investigations,'
p2271
aI1144
aa(lp2272
S'Some'
p2273
aI1145
aa(lp2274
S'truck.'
p2275
aI1146
aa(lp2276
S'deliver'
p2277
aI1147
aa(lp2278
S'needed'
p2279
aI1148
aa(lp2280
S'isactually'
p2281
aI1149
aa(lp2282
S'helicopter'
p2283
aI1150
aa(lp2284
S'Karam'
p2285
aI1151
aa(lp2286
S'iiNBEL'
p2287
aI1152
aa(lp2288
S'little'
p2289
aI1153
aa(lp2290
S'thousand.'
p2291
aI1154
aa(lp2292
S'independent'
p2293
aI1155
aa(lp2294
S'analysts'
p2295
aI1156
aa(lp2296
S'figure'
p2297
aI1157
aa(lp2298
S'GALEFHTA'
p2299
aI1158
aa(lp2300
S'AYUTZINTIPH'
p2301
aI1159
aa(lp2302
S'higher.'
p2303
aI1160
aa(lp2304
S'grew'
p2305
aI1161
aa(lp2306
S'putting'
p2307
aI1162
aa(lp2308
S"Fix/er'"
p2309
aI1163
aa(lp2310
S'TLATELULCU,'
p2311
aI1164
aa(lp2312
S'wait'
p2313
aI1165
aa(lp2314
S'bus,which'
p2315
aI1166
aa(lp2316
S'final'
p2317
aI1167
aa(lp2318
S'fate'
p2319
aI1168
aa(lp2320
S'are,'
p2321
aI1169
aa(lp2322
S'appoint'
p2323
aI1170
aa(lp2324
S'passenger'
p2325
aI1171
aa(lp2326
S'ourselves'
p2327
aI1172
aa(lp2328
S'intercepted'
p2329
aI1173
aa(lp2330
S'square,'
p2331
aI1174
aa(lp2332
S'doctors,'
p2333
aI1175
aa(lp2334
S'rocks,'
p2335
aI1176
aa(lp2336
S'yelled'
p2337
aI1177
aa(lp2338
S'asking'
p2339
aI1178
aa(lp2340
S'whythey'
p2341
aI1179
aa(lp2342
S'unarmed.'
p2343
aI1180
aa(lp2344
S'Either'
p2345
aI1181
aa(lp2346
S'weapons.'
p2347
aI1182
aa(lp2348
S'stones,'
p2349
aI1183
aa(lp2350
S'insistence'
p2351
aI1184
aa(lp2352
S'paid'
p2353
aI1185
aa(lp2354
S'provocateurs'
p2355
aI1186
aa(lp2356
S'corruption'
p2357
aI1187
aa(lp2358
S'massive,'
p2359
aI1188
aa(lp2360
S'end'
p2361
aI1189
aa(lp2362
S'trucks'
p2363
aI1190
aa(lp2364
S'exploiting.'
p2365
aI1191
aa(lp2366
S'government]'
p2367
aI1192
aa(lp2368
S'use'
p2369
aI1193
aa(lp2370
S'opinion,'
p2371
aI1194
aa(lp2372
S'assassin'
p2373
aI1195
aa(lp2374
S'[Fucking'
p2375
aI1196
aa(lp2376
S'send'
p2377
aI1197
aa(lp2378
S'fellow'
p2379
aI1198
aa(lp2380
S'ensure'
p2381
aI1199
aa(lp2382
S'police]'
p2383
aI1200
aa(lp2384
S'ADRIAHA'
p2385
aI1201
aa(lp2386
S'forces,'
p2387
aI1202
aa(lp2388
S'army'
p2389
aI1203
aa(lp2390
S'embassies'
p2391
aI1204
aa(lp2392
S'state.'
p2393
aI1205
aa(lp2394
S'then'
p2395
aI1206
aa(lp2396
S'accommodating.'
p2397
aI1207
aa(lp2398
S'demonstrators'
p2399
aI1208
aa(lp2400
S'firewood.'
p2401
aI1209
aa(lp2402
S'tires'
p2403
aI1210
aa(lp2404
S'consulates'
p2405
aI1211
aa(lp2406
S'public'
p2407
aI1212
aa(lp2408
S'indiscriminately,'
p2409
aI1213
aa(lp2410
S'New'
p2411
aI1214
aa(lp2412
S'York,'
p2413
aI1215
aa(lp2414
S'Buenos'
p2415
aI1216
aa(lp2416
S'Aires,'
p2417
aI1217
aa(lp2418
S'Paris,'
p2419
aI1218
aa(lp2420
S'Tension'
p2421
aI1219
aa(lp2422
S'circle'
p2423
aI1220
aa(lp2424
S'generated'
p2425
aI1221
aa(lp2426
S'violence'
p2427
aI1222
aa(lp2428
S'act'
p2429
aI1223
aa(lp2430
S'heinous'
p2431
aI1224
aa(lp2432
S'snipers'
p2433
aI1225
aa(lp2434
S'filming'
p2435
aI1226
aa(lp2436
S'hundreds'
p2437
aI1227
aa(lp2438
S'asshole.Keep'
p2439
aI1228
aa(lp2440
S'demonstrators.'
p2441
aI1229
aa(lp2442
S'Even'
p2443
aI1230
aa(lp2444
S'aiming.'
p2445
aI1231
aa(lp2446
S'civilians'
p2447
aI1232
aa(lp2448
S'everyone'
p2449
aI1233
aa(lp2450
S'aim'
p2451
aI1234
aa(lp2452
S'today'
p2453
aI1235
aa(lp2454
S'housing'
p2455
aI1236
aa(lp2456
S'2pm'
p2457
aI1237
aa(lp2458
S'complex'
p2459
aI1238
aa(lp2460
S'Tlatelolco.'
p2461
aI1239
aa(lp2462
S"UI'"
p2463
aI1240
aa(lp2464
S'levels'
p2465
aI1241
aa(lp2466
S'MI'
p2467
aI1242
aa(lp2468
S'A11'
p2469
aI1243
aa(lp2470
S'curb.'
p2471
aI1244
aa(lp2472
S'place'
p2473
aI1245
aa(lp2474
S'located'
p2475
aI1246
aa(lp2476
S'happened'
p2477
aI1247
aa(lp2478
S'field,'
p2479
aI1248
aa(lp2480
S"Coma'r'namfs"
p2481
aI1249
aa(lp2482
S'\xe2\x80\x98JELTRDNI'
p2483
aI1250
aa(lp2484
S'SHELLY'
p2485
aI1251
aa(lp2486
S'knows'
p2487
aI1252
aa(lp2488
S'whereabouts'
p2489
aI1253
aa(lp2490
S'KMJIIEL'
p2491
aI1254
aa(lp2492
S'promising'
p2493
aI1255
aa(lp2494
S'last'
p2495
aI1256
aa(lp2496
S'Direcfmn'
p2497
aI1257
aa(lp2498
S'MATT'
p2499
aI1258
aa(lp2500
S'near'
p2501
aI1259
aa(lp2502
S'reached'
p2503
aI1260
aa(lp2504
S'SCHUENMICHAEL'
p2505
aI1261
aa(lp2506
S'answer,saying'
p2507
aI1262
aa(lp2508
S'SKINNER'
p2509
aI1263
aa(lp2510
S'Motion'
p2511
aI1264
aa(lp2512
S'34'
p2513
aI1265
aa(lp2514
S'media'
p2515
aI1266
aa(lp2516
S'IIGUYEII'
p2517
aI1267
aa(lp2518
S'outskirts'
p2519
aI1268
aa(lp2520
S'GUERRERI]'
p2521
aI1269
aa(lp2522
S'OLIVIA'
p2523
aI1270
aa(lp2524
S'KAITLYII'
p2525
aI1271
aa(lp2526
S'away.'
p2527
aI1272
aa(lp2528
S'pay'
p2529
aI1273
aa(lp2530
S'everything'
p2531
aI1274
aa(lp2532
S'doing,'
p2533
aI1275
aa(lp2534
S'RA'
p2535
aI1276
aa(lp2536
S'bring'
p2537
aI1277
aa(lp2538
S'back.'
p2539
aI1278
aa(lp2540
S'officerhand-picked'
p2541
aI1279
aa(lp2542
S'Afterwards,'
p2543
aI1280
aa(lp2544
S'mad,'
p2545
aI1281
aa(lp2546
S'mExlcU'
p2547
aI1282
aa(lp2548
S'SCHUULGUERRERU,'
p2549
aI1283
aa(lp2550
S'NURNIAL'
p2551
aI1284
aa(lp2552
S'Design'
p2553
aI1285
aa(lp2554
S'solve'
p2555
aI1286
aa(lp2556
S'truth.'
p2557
aI1287
aa(lp2558
S'investigators'
p2559
aI1288
aa(lp2560
S'BEEKER'
p2561
aI1289
aa(lp2562
S'approached'
p2563
aI1290
aa(lp2564
S'arrest'
p2565
aI1291
aa(lp2566
S'ENB'
p2567
aI1292
aa(lp2568
S'mnLu|s'
p2569
aI1293
aa(lp2570
S'Rl'
p2571
aI1294
aa(lp2572
S'reporters'
p2573
aI1295
aa(lp2574
S'seek'
p2575
aI1296
aa(lp2576
S'activists.'
p2577
aI1297
aa(lp2578
S'ELEANEIR'
p2579
aI1298
aa(lp2580
S'Commission'
p2581
aI1299
aa(lp2582
S'pens,'
p2583
aI1300
aa(lp2584
S'tragedy'
p2585
aI1301
aa(lp2586
S'did.'
p2587
aI1302
aa(lp2588
S'thinking'
p2589
aI1303
aa(lp2590
S'Graphics'
p2591
aI1304
aa(lp2592
S'SE&LEYPas!'
p2593
aI1305
aa(lp2594
S'was:one'
p2595
aI1306
aa(lp2596
S'Rights.'
p2597
aI1307
aa(lp2598
S'DWAYNE'
p2599
aI1308
aa(lp2600
S'gunfire,'
p2601
aI1309
aa(lp2602
S'burst'
p2603
aI1310
aa(lp2604
S'notebooks'
p2605
aI1311
aa(lp2606
S'nabbed,'
p2607
aI1312
aa(lp2608
S'weapons'
p2609
aI1313
aa(lp2610
S'boats'
p2611
aI1314
aa(lp2612
S'consider'
p2613
aI1315
aa(lp2614
S'FYE'
p2615
aI1316
aa(lp2616
S'MELISM'
p2617
aI1317
aa(lp2618
S'came'
p2619
aI1318
aa(lp2620
S'getting'
p2621
aI1319
aa(lp2622
S'placed'
p2623
aI1320
aa(lp2624
S'IJEL'
p2625
aI1321
aa(lp2626
S'alive'
p2627
aI1322
aa(lp2628
S'course,'
p2629
aI1323
aa(lp2630
S'hoods,and'
p2631
aI1324
aa(lp2632
S'Next'
p2633
aI1325
aa(lp2634
S'to.'
p2635
aI1326
aa(lp2636
S'Pmmmtmn/Jssf.'
p2637
aI1327
aa(lp2638
S'ERG'
p2639
aI1328
aa(lp2640
S'Dimrtrof'
p2641
aI1329
aa(lp2642
S'calm'
p2643
aI1330
aa(lp2644
S'GU'
p2645
aI1331
aa(lp2646
S'PULICE'
p2647
aI1332
aa(lp2648
S'ER'
p2649
aI1333
aa(lp2650
S'DPR'
p2651
aI1334
aa(lp2652
S"'I"
p2653
aI1335
aa(lp2654
S'Hucn'
p2655
aI1336
aa(lp2656
S'\\mLDEz'
p2657
aI1337
aa(lp2658
S'COMMUNITY'
p2659
aI1338
aa(lp2660
S'now.'
p2661
aI1339
aa(lp2662
S'armynor'
p2663
aI1340
aa(lp2664
S'bit'
p2665
aI1341
aa(lp2666
S'Firefighters'
p2667
aI1342
aa(lp2668
S'20,'
p2669
aI1343
aa(lp2670
S'2014,'
p2671
aI1344
aa(lp2672
S'SPOKESNIAN'
p2673
aI1345
aa(lp2674
S'either.'
p2675
aI1346
aa(lp2676
S'news,'
p2677
aI1347
aa(lp2678
S'points,'
p2679
aI1348
aa(lp2680
S'WBLI]'
p2681
aI1349
aa(lp2682
S'global.'
p2683
aI1350
aa(lp2684
S'things'
p2685
aI1351
aa(lp2686
S'themselves.'
p2687
aI1352
aa(lp2688
S'happening.'
p2689
aI1353
aa(lp2690
S'see,'
p2691
aI1354
aa(lp2692
S'anyConfrontation'
p2693
aI1355
aa(lp2694
S'Chihuahua'
p2695
aI1356
aa(lp2696
S'seem'
p2697
aI1357
aa(lp2698
S'Plaza'
p2699
aI1358
aa(lp2700
S'sufficiently'
p2701
aI1359
aa(lp2702
S'possible,'
p2703
aI1360
aa(lp2704
S'incompetence'
p2705
aI1361
aa(lp2706
S'LALI'
p2707
aI1362
aa(lp2708
S'itself.'
p2709
aI1363
aa(lp2710
S'repeating'
p2711
aI1364
aa(lp2712
S'Pmrfucrion'
p2713
aI1365
aa(lp2714
S'.1'
p2715
aI1366
aa(lp2716
S'feeling,'
p2717
aI1367
aa(lp2718
S'imagine'
p2719
aI1368
aa(lp2720
S'fear'
p2721
aI1369
aa(lp2722
S'terror'
p2723
aI1370
aa(lp2724
S'finished.'
p2725
aI1371
aa(lp2726
S'Argentina'
p2727
aI1372
aa(lp2728
S'investigating'
p2729
aI1373
aa(lp2730
S'funeral'
p2731
aI1374
aa(lp2732
S'demonstrated'
p2733
aI1375
aa(lp2734
S'every'
p2735
aI1376
aa(lp2736
S'process,'
p2737
aI1377
aa(lp2738
S'sounded'
p2739
aI1378
aa(lp2740
S'version'
p2741
aI1379
aa(lp2742
S'afternoon'
p2743
aI1380
aa(lp2744
S"government's"
p2745
aI1381
aa(lp2746
S'VER'
p2747
aI1382
aa(lp2748
S'Stuff,'
p2749
aI1383
aa(lp2750
S'moment'
p2751
aI1384
aa(lp2752
S'right'
p2753
aI1385
aa(lp2754
S'stand'
p2755
aI1386
aa(lp2756
S'study'
p2757
aI1387
aa(lp2758
S'knowing,'
p2759
aI1388
aa(lp2760
S'foolish.'
p2761
aI1389
aa(lp2762
S'happened,'
p2763
aI1390
aa(lp2764
S'1968,'
p2765
aI1391
aa(lp2766
S'2,'
p2767
aI1392
aa(lp2768
S'Pueblo'
p2769
aI1393
aa(lp2770
S'Viejo.'
p2771
aI1394
aa(lp2772
S'Culturas,'
p2773
aI1395
aa(lp2774
S'Tres'
p2775
aI1396
aa(lp2776
S'incident'
p2777
aI1397
aa(lp2778
S'las'
p2779
aI1398
aa(lp2780
S'A.'
p2781
aI1399
aa(lp2782
S'found,'
p2783
aI1400
aa(lp2784
S'represent'
p2785
aI1401
aa(lp2786
S'chilling'
p2787
aI1402
aa(lp2788
S"P/'rm'mtmm"
p2789
aI1403
aa(lp2790
S'slept.'
p2791
aI1404
aa(lp2792
S'elected'
p2793
aI1405
aa(lp2794
S'#_LIIII'
p2795
aI1406
aa(lp2796
S'2012.'
p2797
aI1407
aa(lp2798
S'Still,'
p2799
aI1408
aa(lp2800
S"TY'AERAEExecum'e"
p2801
aI1409
aa(lp2802
S'Hummer:'
p2803
aI1410
aa(lp2804
S'News'
p2805
aI1411
aa(lp2806
S'September,'
p2807
aI1412
aa(lp2808
S'nl1UI-l-I-U'
p2809
aI1413
aa(lp2810
S'floor.'
p2811
aI1414
aa(lp2812
S'beds'
p2813
aI1415
aa(lp2814
S'eat'
p2815
aI1416
aa(lp2816
S'persons'
p2817
aI1417
aa(lp2818
S'2006,'
p2819
aI1418
aa(lp2820
S'ordered'
p2821
aI1419
aa(lp2822
S'scheduled'
p2823
aI1420
aa(lp2824
S'thought,'
p2825
aI1421
aa(lp2826
S'shocking,'
p2827
aI1422
aa(lp2828
S'figures'
p2829
aI1423
aa(lp2830
S'Department'
p2831
aI1424
aa(lp2832
S'US'
p2833
aI1425
aa(lp2834
S'crime,'
p2835
aI1426
aa(lp2836
S'lockers.'
p2837
aI1427
aa(lp2838
S'MARTINR'
p2839
aI1428
aa(lp2840
S'Everything'
p2841
aI1429
aa(lp2842
S'influence'
p2843
aI1430
aa(lp2844
S'states'
p2845
aI1431
aa(lp2846
S'half'
p2847
aI1432
aa(lp2848
S'have!'
p2849
aI1433
aa(lp2850
S'0F'
p2851
aI1434
aa(lp2852
S'students?'
p2853
aI1435
aa(lp2854
S'IGUALA'
p2855
aI1436
aa(lp2856
S'PmrffmfmrrAssmfanr'
p2857
aI1437
aa(lp2858
S'CASTILLD'
p2859
aI1438
aa(lp2860
S'EZ\xc2\xa33"er'
p2861
aI1439
aa(lp2862
S"PI]leArfm'rmnaf"
p2863
aI1440
aa(lp2864
S'M751'
p2865
aI1441
aa(lp2866
S'\xc2\xa33"er'
p2867
aI1442
aa(lp2868
S'II|`11ENEZ'
p2869
aI1443
aa(lp2870
S'ANDREANEIELnLBERTD'
p2871
aI1444
aa(lp2872
S'CASTILlD'
p2873
aI1445
aa(lp2874
S'DELBADU'
p2875
aI1446
aa(lp2876
S'Imvemfanager'
p2877
aI1447
aa(lp2878
S'rented,'
p2879
aI1448
aa(lp2880
S'I.'
p2881
aI1449
aa(lp2882
S'locks,so'
p2883
aI1450
aa(lp2884
S'day.'
p2885
aI1451
aa(lp2886
S'dominate'
p2887
aI1452
aa(lp2888
S'violence,'
p2889
aI1453
aa(lp2890
S'first-year'
p2891
aI1454
aa(lp2892
S'narco'
p2893
aI1455
aa(lp2894
S'Frm/:mer'
p2895
aI1456
aa(lp2896
S'carried'
p2897
aI1457
aa(lp2898
S'atmosphere'
p2899
aI1458
aa(lp2900
S'situation'
p2901
aI1459
aa(lp2902
S'mattresses,'
p2903
aI1460
aa(lp2904
S'beds,'
p2905
aI1461
aa(lp2906
S'extermination?'
p2907
aI1462
aa(lp2908
S'ask'
p2909
aI1463
aa(lp2910
S'estimated'
p2911
aI1464
aa(lp2912
S'detain'
p2913
aI1465
aa(lp2914
S'nf'
p2915
aI1466
aa(lp2916
S'Director'
p2917
aI1467
aa(lp2918
S"'v'AERAEExecmr've"
p2919
aI1468
aa(lp2920
S"h'rtw"
p2921
aI1469
aa(lp2922
S"r-'IARTINA"
p2923
aI1470
aa(lp2924
S'2011,'
p2925
aI1471
aa(lp2926
S'alive.]'
p2927
aI1472
aa(lp2928
S'indiscriminately'
p2929
aI1473
aa(lp2930
S'12,'
p2931
aI1474
aa(lp2932
S'December'
p2933
aI1475
aa(lp2934
S'rea!'
p2935
aI1476
aa(lp2936
S'Cement'
p2937
aI1477
aa(lp2938
S'HIGHWAY'
p2939
aI1478
aa(lp2940
S'ACAPULCU'
p2941
aI1479
aa(lp2942
S'MEXICU'
p2943
aI1480
aa(lp2944
S'real'
p2945
aI1481
aa(lp2946
S'avoid'
p2947
aI1482
aa(lp2948
S'BLRNARDU'
p2949
aI1483
aa(lp2950
S'LUYDLA'
p2951
aI1484
aa(lp2952
S'left,'
p2953
aI1485
aa(lp2954
S'parties'
p2955
aI1486
aa(lp2956
S'opposition'
p2957
aI1487
aa(lp2958
S'saying'
p2959
aI1488
aa(lp2960
S'arguments'
p2961
aI1489
aa(lp2962
S'[TA'
p2963
aI1490
aa(lp2964
S'lULlf]'
p2965
aI1491
aa(lp2966
S'years.'
p2967
aI1492
aa(lp2968
S'constant'
p2969
aI1493
aa(lp2970
S'DERBEZMean\xe2\x80\x99'
p2971
aI1494
aa(lp2972
S'face'
p2973
aI1495
aa(lp2974
S'ended'
p2975
aI1496
aa(lp2976
S'bloodshed,'
p2977
aI1497
aa(lp2978
S'ALLD'
p2979
aI1498
aa(lp2980
S'Another'
p2981
aI1499
aa(lp2982
S'floor,'
p2983
aI1500
aa(lp2984
S'sleep.'
p2985
aI1501
aa(lp2986
S'room'
p2987
aI1502
aa(lp2988
S'streets'
p2989
aI1503
aa(lp2990
S'again.'
p2991
aI1504
aa(lp2992
S'eruption'
p2993
aI1505
aa(lp2994
S'wife.'
p2995
aI1506
aa(lp2996
S'Shows'
p2997
aI1507
aa(lp2998
S'Pun/:mer'
p2999
aI1508
aa(lp3000
S'i'
aI1509
aa(lp3001
S'Around'
p3002
aI1510
aa(lp3003
S'burns'
p3004
aI1511
aa(lp3005
S'paradise.'
p3006
aI1512
aa(lp3007
S"it's"
p3008
aI1513
aa(lp3009
S'severe'
p3010
aI1514
aa(lp3011
S'man'
p3012
aI1515
aa(lp3013
S'nine'
p3014
aI1516
aa(lp3015
S"o'clock"
p3016
aI1517
aa(lp3017
S'beautiful'
p3018
aI1518
aa(lp3019
S'evening,'
p3020
aI1519
aa(lp3021
S'leaving'
p3022
aI1520
aa(lp3023
S'Country.'
p3024
aI1521
aa(lp3025
S'city,'
p3026
aI1522
aa(lp3027
S'States'
p3028
aI1523
aa(lp3029
S'fractionate'
p3030
aI1524
aa(lp3031
S'Beltran'
p3032
aI1525
aa(lp3033
S'Leyva'
p3034
aI1526
aa(lp3035
S'late'
p3036
aI1527
aa(lp3037
S'REPUBlIChFEIE'
p3038
aI1528
aa(lp3039
S'we\xe2\x80\x99ve'
p3040
aI1529
aa(lp3041
S'remove'
p3042
aI1530
aa(lp3043
S'ambulance!'
p3044
aI1531
aa(lp3045
S'Bring'
p3046
aI1532
aa(lp3047
S'we\xe2\x80\x99re'
p3048
aI1533
aa(lp3049
S'detained'
p3050
aI1534
aa(lp3051
S'PATO"'
p3052
aI1535
aa(lp3053
S'25114'
p3054
aI1536
aa(lp3055
S'Could'
p3056
aI1537
aa(lp3057
S'identified'
p3058
aI1538
aa(lp3059
S'themselves'
p3060
aI1539
aa(lp3061
S'were.'
p3062
aI1540
aa(lp3063
S'brain-dead.'
p3064
aI1541
aa(lp3065
S'vehicles'
p3066
aI1542
aa(lp3067
S'thegarbage'
p3068
aI1543
aa(lp3069
S'dump'
p3070
aI1544
aa(lp3071
S'mentioned.'
p3072
aI1545
aa(lp3073
S'7,'
p3074
aI1546
aa(lp3075
S'fled,'
p3076
aI1547
aa(lp3077
S'others'
p3078
aI1548
aa(lp3079
S'INK.'
p3080
aI1549
aa(lp3081
S'officers,'
p3082
aI1550
aa(lp3083
S'arrived'
p3084
aI1551
aa(lp3085
S'looting,'
p3086
aI1552
aa(lp3087
S'hour'
p3088
aI1553
aa(lp3089
S"UI'I'IbL"
p3090
aI1554
aa(lp3091
S"II'IL"
p3092
aI1555
aa(lp3093
S'lunwnl'
p3094
aI1556
aa(lp3095
S'Can'
p3096
aI1557
aa(lp3097
S'escape.'
p3098
aI1558
aa(lp3099
S'shopping!'
p3100
aI1559
aa(lp3101
S'mess.-'
p3102
aI1560
aa(lp3103
S'31;)'
p3104
aI1561
aa(lp3105
S'Inn'
p3106
aI1562
aa(lp3107
S'what?'
p3108
aI1563
aa(lp3109
S'ravine'
p3110
aI1564
aa(lp3111
S'hidden'
p3112
aI1565
aa(lp3113
S'certainly'
p3114
aI1566
aa(lp3115
S'given'
p3116
aI1567
aa(lp3117
S'principles.'
p3118
aI1568
aa(lp3119
S'generating'
p3120
aI1569
aa(lp3121
S'friend!'
p3122
aI1570
aa(lp3123
S'my'
p3124
aI1571
aa(lp3125
S"You've"
p3126
aI1572
aa(lp3127
S'parent.'
p3128
aI1573
aa(lp3129
S'over.'
p3130
aI1574
aa(lp3131
S'based'
p3132
aI1575
aa(lp3133
S'really'
p3134
aI1576
aa(lp3135
S'fanned'
p3136
aI1577
aa(lp3137
S'Canyon.'
p3138
aI1578
aa(lp3139
S'made'
p3140
aI1579
aa(lp3141
S'mistakethey'
p3142
aI1580
aa(lp3143
S'committed'
p3144
aI1581
aa(lp3145
S'communist'
p3146
aI1582
aa(lp3147
S'Meanwhile,'
p3148
aI1583
aa(lp3149
S'types;'
p3150
aI1584
aa(lp3151
S'a.'
p3152
aI1585
aa(lp3153
S'plain'
p3154
aI1586
aa(lp3155
S'Sight.'
p3156
aI1587
aa(lp3157
S'testimonies'
p3158
aI1588
aa(lp3159
S'confessionsthat'
p3160
aI1589
aa(lp3161
S'gathered,'
p3162
aI1590
aa(lp3163
S'along'
p3164
aI1591
aa(lp3165
S'ground.'
p3166
aI1592
aa(lp3167
S'clamored'
p3168
aI1593
aa(lp3169
S'hit'
p3170
aI1594
aa(lp3171
S'head,and'
p3172
aI1595
aa(lp3173
S'Hours'
p3174
aI1596
aa(lp3175
S'information,'
p3176
aI1597
aa(lp3177
S'le'
p3178
aI1598
aa(lp3179
S'resignation'
p3180
aI1599
aa(lp3181
S'work'
p3182
aI1600
aa(lp3183
S'recording'
p3184
aI1601
aa(lp3185
S'policeman.'
p3186
aI1602
aa(lp3187
S'return'
p3188
aI1603
aa(lp3189
S'decided'
p3190
aI1604
aa(lp3191
S'fhem'
p3192
aI1605
aa(lp3193
S'call'
p3194
aI1606
aa(lp3195
S'RiGHTS'
p3196
aI1607
aa(lp3197
S'gear,'
p3198
aI1608
aa(lp3199
S'demanding'
p3200
aI1609
aa(lp3201
S'PRESIDENEIA'
p3202
aI1610
aa(lp3203
S'REPUBlICFlPRBCURADURM'
p3204
aI1611
aa(lp3205
S'cars.'
p3206
aI1612
aa(lp3207
S'inmmnvlcma'
p3208
aI1613
aa(lp3209
S'taken?-'
p3210
aI1614
aa(lp3211
S'Iztapalapa,'
p3212
aI1615
aa(lp3213
S'mourning,'
p3214
aI1616
aa(lp3215
S'sadness'
p3216
aI1617
aa(lp3217
S"I\\U\\Jl'\\l-I-OJHUMAN"
p3218
aI1618
aa(lp3219
S'cnv'
p3220
aI1619
aa(lp3221
S'despair.'
p3222
aI1620
aa(lp3223
S'politician,'
p3224
aI1621
aa(lp3225
S'think,'
p3226
aI1622
aa(lp3227
S'ability'
p3228
aI1623
aa(lp3229
S'already,'
p3230
aI1624
aa(lp3231
S'thingthat'
p3232
aI1625
aa(lp3233
S'vans.'
p3234
aI1626
aa(lp3235
S'unidentified'
p3236
aI1627
aa(lp3237
S'REPUBLICFLPRDCURBDURM'
p3238
aI1628
aa(lp3239
S'REPUBLICD.FEIE'
p3240
aI1629
aa(lp3241
S'sincethe'
p3242
aI1630
aa(lp3243
S'allowed,'
p3244
aI1631
aa(lp3245
S'Several'
p3246
aI1632
aa(lp3247
S'U1'
p3248
aI1633
aa(lp3249
S'City,'
p3250
aI1634
aa(lp3251
S'PRESIDENEIQ'
p3252
aI1635
aa(lp3253
S"'1"
p3254
aI1636
aa(lp3255
S'tired.'
p3256
aI1637
aa(lp3257
S'MEDIA.'
p3258
aI1638
aa(lp3259
S'rusty'
p3260
aI1639
aa(lp3261
S'request'
p3262
aI1640
aa(lp3263
S'priorities,`'
p3264
aI1641
aa(lp3265
S'somfor'
p3266
aI1642
aa(lp3267
S'*AENDUZAHUMAN'
p3268
aI1643
aa(lp3269
S'grating'
p3270
aI1644
aa(lp3271
S'1+ans|s|'
p3272
aI1645
aa(lp3273
S'indignation'
p3274
aI1646
aa(lp3275
S'honorable'
p3276
aI1647
aa(lp3277
S'nostril.'
p3278
aI1648
aa(lp3279
S'laid'
p3280
aI1649
aa(lp3281
S'environment,A'
p3282
aI1650
aa(lp3283
S'samples'
p3284
aI1651
aa(lp3285
S'diving'
p3286
aI1652
aa(lp3287
S'river.'
p3288
aI1653
aa(lp3289
S'absence'
p3290
aI1654
aa(lp3291
S'congressof'
p3292
aI1655
aa(lp3293
S'seen.'
p3294
aI1656
aa(lp3295
S'Yes.'
p3296
aI1657
aa(lp3297
S'times'
p3298
aI1658
aa(lp3299
S'statewho'
p3300
aI1659
aa(lp3301
S'action.'
p3302
aI1660
aa(lp3303
S'Would'
p3304
aI1661
aa(lp3305
S'that?-'
p3306
aI1662
aa(lp3307
S'rage'
p3308
aI1663
aa(lp3309
S'angry.'
p3310
aI1664
aa(lp3311
S'sum'
p3312
aI1665
aa(lp3313
S'alternative.'
p3314
aI1666
aa(lp3315
S'General'
p3316
aI1667
aa(lp3317
S'Republic'
p3318
aI1668
aa(lp3319
S'declared'
p3320
aI1669
aa(lp3321
S'there.'
p3322
aI1670
aa(lp3323
S'COCULA,'
p3324
aI1671
aa(lp3325
S'never'
p3326
aI1672
aa(lp3327
S'speech'
p3328
aI1673
aa(lp3329
S'waste,'
p3330
aI1674
aa(lp3331
S'Started'
p3332
aI1675
aa(lp3333
S'Call.'
p3334
aI1676
aa(lp3335
S'[it'
p3336
aI1677
aa(lp3337
S'Someone'
p3338
aI1678
aa(lp3339
S'BIRIIBAUTI.PmmmfionAmman!'
p3340
aI1679
aa(lp3341
S'confessions,'
p3342
aI1680
aa(lp3343
S'fire,'
p3344
aI1681
aa(lp3345
S'Sides.'
p3346
aI1682
aa(lp3347
S'sides.'
p3348
aI1683
aa(lp3349
S'Too'
p3350
aI1684
aa(lp3351
S'way.'
p3352
aI1685
aa(lp3353
S'opposite'
p3354
aI1686
aa(lp3355
S'lay'
p3356
aI1687
aa(lp3357
S'firewood,'
p3358
aI1688
aa(lp3359
S'From'
p3360
aI1689
aa(lp3361
S"ldon't"
p3362
aI1690
aa(lp3363
S'People'
p3364
aI1691
aa(lp3365
S'lost'
p3366
aI1692
aa(lp3367
S'everylevel'
p3368
aI1693
aa(lp3369
S"haven't"
p3370
aI1694
aa(lp3371
S'kept'
p3372
aI1695
aa(lp3373
S'word.'
p3374
aI1696
aa(lp3375
S'winnowed,'
p3376
aI1697
aa(lp3377
S'stone'
p3378
aI1698
aa(lp3379
S'tires.'
p3380
aI1699
aa(lp3381
S"There's"
p3382
aI1700
aa(lp3383
S'rubber'
p3384
aI1701
aa(lp3385
S'firsthand'
p3386
aI1702
aa(lp3387
S'remnants,'
p3388
aI1703
aa(lp3389
S'politicians'
p3390
aI1704
aa(lp3391
S'weapons!'
p3392
aI1705
aa(lp3393
S'schools,'
p3394
aI1706
aa(lp3395
S'requirementsfor'
p3396
aI1707
aa(lp3397
S'admission'
p3398
aI1708
aa(lp3399
S'chaotic.I'
p3400
aI1709
aa(lp3401
S'capacityto'
p3402
aI1710
aa(lp3403
S'inadequate,'
p3404
aI1711
aa(lp3405
S'arrived,and'
p3406
aI1712
aa(lp3407
S'immediately'
p3408
aI1713
aa(lp3409
S'fire.'
p3410
aI1714
aa(lp3411
S'contribute'
p3412
aI1715
aa(lp3413
S"TmnsmfmnEnnm'iuamr"
p3414
aI1716
aa(lp3415
S'unarmed.We'
p3416
aI1717
aa(lp3417
S'FURENSIC'
p3418
aI1718
aa(lp3419
S'volunteers,'
p3420
aI1719
aa(lp3421
S'remains,'
p3422
aI1720
aa(lp3423
S'ANTHRUPULUGY'
p3424
aI1721
aa(lp3425
S'sir.'
p3426
aI1722
aa(lp3427
S'TUITIA'
p3428
aI1723
aa(lp3429
S'aiming'
p3430
aI1724
aa(lp3431
S'us?We'
p3432
aI1725
aa(lp3433
S'unarmed!'
p3434
aI1726
aa(lp3435
S'DREW'
p3436
aI1727
aa(lp3437
S"DIVERL'mzsfamr"
p3438
aI1728
aa(lp3439
S'proof.'
p3440
aI1729
aa(lp3441
S'definitive'
p3442
aI1730
aa(lp3443
S'it.'
p3444
aI1731
aa(lp3445
S'implementedby'
p3446
aI1732
aa(lp3447
S'she'
p3448
aI1733
aa(lp3449
S'rockswe'
p3450
aI1734
aa(lp3451
S'CIIARLEITTE'
p3452
aI1735
aa(lp3453
S'Innsbruck,'
p3454
aI1736
aa(lp3455
S'v'
aI1737
aa(lp3456
S'Austria.'
p3457
aI1738
aa(lp3458
S'|\xe2\x80\x98m'
p3459
aI1739
aa(lp3460
S'Ll-II'
p3461
aI1740
aa(lp3462
S'l-'
p3463
aI1741
aa(lp3464
S'there?'
p3465
aI1742
aa(lp3466
S"I-I'l"
p3467
aI1743
aa(lp3468
S"'the"
p3469
aI1744
aa(lp3470
S'[We'
p3471
aI1745
aa(lp3472
S'Felipe'
p3473
aI1746
aa(lp3474
S'8,'
p3475
aI1747
aa(lp3476
S'conference,'
p3477
aI1748
aa(lp3478
S'Once'
p3479
aI1749
aa(lp3480
S'University'
p3481
aI1750
aa(lp3482
S'Cruz'
p3483
aI1751
aa(lp3484
S'Protesters'
p3485
aI1752
aa(lp3486
S'clearing.'
p3487
aI1753
aa(lp3488
S'Sandoval,'
p3489
aI1754
aa(lp3490
S'education.'
p3491
aI1755
aa(lp3492
S'kind'
p3493
aI1756
aa(lp3494
S'noticedthere'
p3495
aI1757
aa(lp3496
S'bridge.'
p3497
aI1758
aa(lp3498
S'bags,'
p3499
aI1759
aa(lp3500
S'plastic'
p3501
aI1760
aa(lp3502
S'digging'
p3503
aI1761
aa(lp3504
S'courtyard'
p3505
aI1762
aa(lp3506
S'narcos!'
p3507
aI1763
aa(lp3508
S'trace'
p3509
aI1764
aa(lp3510
S'UI-'
p3511
aI1765
aa(lp3512
S'Corruption,'
p3513
aI1766
aa(lp3514
S'hands.'
p3515
aI1767
aa(lp3516
S"doesn't"
p3517
aI1768
aa(lp3518
S'obvious'
p3519
aI1769
aa(lp3520
S'professionalism,'
p3521
aI1770
aa(lp3522
S'economic'
p3523
aI1771
aa(lp3524
S'now?'
p3525
aI1772
aa(lp3526
S'follow'
p3527
aI1773
aa(lp3528
S'delinquency'
p3529
aI1774
aa(lp3530
S'Now'
p3531
aI1775
aa(lp3532
S'isin'
p3533
aI1776
aa(lp3534
S'realized'
p3535
aI1777
aa(lp3536
S'funded'
p3537
aI1778
aa(lp3538
S'presented'
p3539
aI1779
aa(lp3540
S'them,what'
p3541
aI1780
aa(lp3542
S'knowing,/f'
p3543
aI1781
aa(lp3544
S'Rosales,'
p3545
aI1782
aa(lp3546
S'born.'
p3547
aI1783
aa(lp3548
S"l\\U\\Jl'\\I-I-UHUMAN"
p3549
aI1784
aa(lp3550
S'sorsbgfa'
p3551
aI1785
aa(lp3552
S'rs.\xe2\x80\x98'
p3553
aI1786
aa(lp3554
S'son"dhamers;'
p3555
aI1787
aa(lp3556
S'son`oi\xc2\xa7fa@ers.\xe2\x80\x98'
p3557
aI1788
aa(lp3558
S'w'
aI1789
aa(lp3559
S'Seeing'
p3560
aI1790
aa(lp3561
S'wish'
p3562
aI1791
aa(lp3563
S'sad.'
p3564
aI1792
aa(lp3565
S"W5'l"
p3566
aI1793
aa(lp3567
S"their'stuff"
p3568
aI1794
aa(lp3569
S'carsby'
p3570
aI1795
aa(lp3571
S"arrivecjl,'vand"
p3572
aI1796
aa(lp3573
S'mb\xe2\x80\x9d'
p3574
aI1797
aa(lp3575
S'm.,'
p3576
aI1798
aa(lp3577
S'L13'
p3578
aI1799
aa(lp3579
S'Square,'
p3580
aI1800
aa(lp3581
S'hm*'
p3582
aI1801
aa(lp3583
S'lives.'
p3584
aI1802
aa(lp3585
S'fBecause'
p3586
aI1803
aa(lp3587
S'lm,'
p3588
aI1804
aa(lp3589
S'knowing,l'
p3590
aI1805
aa(lp3591
S'L'
aI1806
aa(lp3592
S'RIGHTS'
p3593
aI1807
aa(lp3594
S'-v_'
p3595
aI1808
aa(lp3596
S'sad.\\'
p3597
aI1809
aa(lp3598
S'1/Jus-t'
p3599
aI1810
aa(lp3600
S'flag'
p3601
aI1811
aa(lp3602
S'and.'
p3603
aI1812
aa(lp3604
S'Vidulfo'
p3605
aI1813
aa(lp3606
S'V'
aI1814
aa(lp3607
S'seeingpdr'
p3608
aI1815
aa(lp3609
S'stuff,'
p3610
aI1816
aa(lp3611
S'friends"1'
p3612
aI1817
aa(lp3613
S'1.'
p3614
aI1818
aa(lp3615
S'seeng'
p3616
aI1819
aa(lp3617
S'fJuSt'
p3618
aI1820
aa(lp3619
S'.1%J,'
p3620
aI1821
aa(lp3621
S"'th\xc3\xa9"
p3622
aI1822
aa(lp3623
S'Stljff,'
p3624
aI1823
aa(lp3625
S'Clothes,'
p3626
aI1824
aa(lp3627
S'Mexican.'
p3628
aI1825
aa(lp3629
S"Q.5').zWeagaalre"
p3630
aI1826
aa(lp3631
S'still,'
p3632
aI1827
aa(lp3633
S'Waggr\xc3\xa9'
p3634
aI1828
aa(lp3635
S'*A'
p3636
aI1829
aa(lp3637
S'-b'
p3638
aI1830
aa(lp3639
S"Welszg\xc3\xa9llAyotzinapa!.'Q"
p3640
aI1831
aa(lp3641
S'doesn\xe2\x80\x99t'
p3642
aI1832
aa(lp3643
S'iget'
p3644
aI1833
aa(lp3645
S'model'
p3646
aI1834
aa(lp3647
S'fAll'
p3648
aI1835
aa(lp3649
S"not'"
p3650
aI1836
aa(lp3651
S'moael'
p3652
aI1837
aa(lp3653
S'neft'
p3654
aI1838
aa(lp3655
S'\\All'
p3656
aI1839
aa(lp3657
S'\xe2\x80\x98i'
p3658
aI1840
aa(lp3659
S'ff'
p3660
aI1841
aa(lp3661
S'\xe2\x80\x98$6.-._'
p3662
aI1842
aa(lp3663
S"n'"
p3664
aI1843
aa(lp3665
S'here,\\'
p3666
aI1844
aa(lp3667
S'patrols,'
p3668
aI1845
aa(lp3669
S'Ayotzinapa!vf'
p3670
aI1846
aa(lp3671
S"'of"
p3672
aI1847
aa(lp3673
S'ie'
p3674
aI1848
aa(lp3675
S'ambushed'
p3676
aI1849
aa(lp3677
S'e'
aI1850
aa(lp3678
S'eiigmmagainst'
p3679
aI1851
aa(lp3680
S'stigmm'
p3681
aI1852
aa(lp3682
S'\\~against'
p3683
aI1853
aa(lp3684
S'shocked'
p3685
aI1854
aa(lp3686
S'.\xe2\x80\x98'
p3687
aI1855
aa(lp3688
S"criminail'zs'*"
p3689
aI1856
aa(lp3690
S"Started'"
p3691
aI1857
aa(lp3692
S'\\-the'
p3693
aI1858
aa(lp3694
S'grievances'
p3695
aI1859
aa(lp3696
S"pe'eTsjhat"
p3697
aI1860
aa(lp3698
S'Ayotzinapa!'
p3699
aI1861
aa(lp3700
S'of,W"'
p3701
aI1862
aa(lp3702
S'precautioiiarymeasures`'
p3703
aI1863
aa(lp3704
S'.pThey'
p3705
aI1864
aa(lp3706
S'STUDENT"'
p3707
aI1865
aa(lp3708
S"w'"
p3709
aI1866
aa(lp3710
S'regai'
p3711
aI1867
aa(lp3712
S'"-*At'
p3713
aI1868
aa(lp3714
S"measures's_"
p3715
aI1869
aa(lp3716
S'AYUTZINRPA'
p3717
aI1870
aa(lp3718
S"precautie'ri'ary"
p3719
aI1871
aa(lp3720
S'`yThey'
p3721
aI1872
aa(lp3722
S'`zero`'
p3723
aI1873
aa(lp3724
S'of,v".'
p3725
aI1874
aa(lp3726
S'of,'
p3727
aI1875
aa(lp3728
S'zero'
p3729
aI1876
aa(lp3730
S'.F'
p3731
aI1877
aa(lp3732
S'~_'
p3733
aI1878
aa(lp3734
S'wl'
p3735
aI1879
aa(lp3736
S'murder'
p3737
aI1880
aa(lp3738
S'that7'
p3739
aI1881
aa(lp3740
S'representative,'
p3741
aI1882
aa(lp3742
S'\\`._-"'
p3743
aI1883
aa(lp3744
S'\\.H-'
p3745
aI1884
aa(lp3746
S"-'.`After"
p3747
aI1885
aa(lp3748
S"criminail'zg'"
p3749
aI1886
aa(lp3750
S'houte'
p3751
aI1887
aa(lp3752
S'Case'
p3753
aI1888
aa(lp3754
S'locks,So'
p3755
aI1889
aa(lp3756
S"l'm"
p3757
aI1890
aa(lp3758
S'five'
p3759
aI1891
aa(lp3760
S'hours.'
p3761
aI1892
aa(lp3762
S'busf'
p3763
aI1893
aa(lp3764
S"'\\__4but"
p3765
aI1894
aa(lp3766
S'UIIWIRES'
p3767
aI1895
aa(lp3768
S'guerrilla'
p3769
aI1896
aa(lp3770
S'kidnappers?'
p3771
aI1897
aa(lp3772
S'beautifui'
p3773
aI1898
aa(lp3774
S'gTthtruth'
p3775
aI1899
aa(lp3776
S't113trMexiCo'
p3777
aI1900
aa(lp3778
S'Absolutely.'
p3779
aI1901
aa(lp3780
S':5:Absolutely.'
p3781
aI1902
aa(lp3782
S'moistcorrupt'
p3783
aI1903
aa(lp3784
S'MII'
p3785
aI1904
aa(lp3786
S'mostcorrupt'
p3787
aI1905
aa(lp3788
S'isv'
p3789
aI1906
aa(lp3790
S"'LM-'FF'"
p3791
aI1907
aa(lp3792
S"what's"
p3793
aI1908
aa(lp3794
S'next?'
p3795
aI1909
aa(lp3796
S'actions'
p3797
aI1910
aa(lp3798
S'change?'
p3799
aI1911
aa(lp3800
S'Ea!!n?m.-"l"rfiff?r'
p3801
aI1912
aa(lp3802
S"Earnemf'frfimr"
p3803
aI1913
aa(lp3804
S'NEIELnLBERTD'
p3805
aI1914
aa(lp3806
S'trugms'
p3807
aI1915
aa(lp3808
S'gangs'
p3809
aI1916
aa(lp3810
S',I[We'
p3811
aI1917
aa(lp3812
S'sayingthat'
p3813
aI1918
aa(lp3814
S'h'
aI1919
aa(lp3815
S'capital'
p3816
aI1920
aa(lp3817
S"HMT'"
p3818
aI1921
aa(lp3819
S'il*'
p3820
aI1922
aa(lp3821
S'accepting,'
p3822
aI1923
aa(lp3823
S'statements'
p3824
aI1924
aa(lp3825
S'basic'
p3826
aI1925
aa(lp3827
S'knowledge'
p3828
aI1926
aa(lp3829
S"Mexico's"
p3830
aI1927
aa(lp3831
S'past,'
p3832
aI1928
aa(lp3833
S'society,'
p3834
aI1929
aa(lp3835
S'Peha!'
p3836
aI1930
aa(lp3837
S'Nieto,'
p3838
aI1931
aa(lp3839
S'casmingthat'
p3840
aI1932
aa(lp3841
S'cas\xe2\x80\x9d'
p3842
aI1933
aa(lp3843
S'sgyingthat'
p3844
aI1934
aa(lp3845
S'c1939.*'
p3846
aI1935
aa(lp3847
S"Ear!!91'a.-'frfif0r"
p3848
aI1936
aa(lp3849
S'NGS('
p3850
aI1937
aa(lp3851
S'PmmmfmrrAssmfanr'
p3852
aI1938
aa(lp3853
S'[In'
p3854
aI1939
aa(lp3855
S'lUth]'
p3856
aI1940
aa(lp3857
S'DERBEZHaan\xe2\x80\x99'
p3858
aI1941
aa(lp3859
S':If'
p3860
aI1942
aa(lp3861
S"Pf'nfimtrfrm"
p3862
aI1943
aa(lp3863
S'LMI'
p3864
aI1944
aa(lp3865
S'ERC'
p3866
aI1945
aa(lp3867
S".fan'felmg"
p3868
aI1946
aa(lp3869
S"Dimrtrof'"
p3870
aI1947
aa(lp3871
S'LLERMD'
p3872
aI1948
aa(lp3873
S'BPR'
p3874
aI1949
aa(lp3875
S'Hucu'
p3876
aI1950
aa(lp3877
S'anDEz'
p3878
aI1951
aa(lp3879
S'Pmmmtmu/Jssf.'
p3880
aI1952
aa(lp3881
S"Conrf/r'namm"
p3882
aI1953
aa(lp3883
S'IIGUY'
p3884
aI1954
aa(lp3885
S'EII'
p3886
aI1955
aa(lp3887
S'Pmrfucrmn'
p3888
aI1956
aa(lp3889
S'Gfafmfc'
p3890
aI1957
aa(lp3891
S'BLRNARDD'
p3892
aI1958
aa(lp3893
S'Crmfenijmcm."'
p3894
aI1959
aa(lp3895
S'TvTDIIEASupervising'
p3896
aI1960
aa(lp3897
S"PDZUArfm'rmnaf"
p3898
aI1961
aa(lp3899
S'63mm'
p3900
aI1962
aa(lp3901
S'Mineraffrfimr'
p3902
aI1963
aa(lp3903
S"_'v';[|||l3\xc2\xbb\xe2\x80\x9d1Supervising"
p3904
aI1964
aa(lp3905
S"_'vTDIIEQSupervising"
p3906
aI1965
aa(lp3907
S"_'v'fElIIEASupervising"
p3908
aI1966
aa(lp3909
S'\xe2\x80\x98JELTRIJNI'
p3910
aI1967
aa(lp3911
S'Graphic'
p3912
aI1968
aa(lp3913
S'GUILLERMU'
p3914
aI1969
aa(lp3915
S'WEILI]'
p3916
aI1970
aa(lp3917
S'farkelmg'
p3918
aI1971
aa(lp3919
S'LLERMU'
p3920
aI1972
aa(lp3921
S"1.'"
p3922
aI1973
aa(lp3923
S'LUYULA'
p3924
aI1974
aa(lp3925
S'Gmfmfc'
p3926
aI1975
aa(lp3927
S'farlfelmg'
p3928
aI1976
aa(lp3929
S'alive]5-.'
p3930
aI1977
aa(lp3931
S'Want'
p3932
aI1978
aa(lp3933
S'-l;|1|LP1r\\rm||~arsn,GUERRERQF.v`'
p3934
aI1979
aa(lp3935
S'unt_i|'
p3936
aI1980
aa(lp3937
S'27.'
p3938
aI1981
aa(lp3939
S'Characteristics,'
p3940
aI1982
aa(lp3941
S'~`'
p3942
aI1983
aa(lp3943
S'iIn'
p3944
aI1984
aa(lp3945
S'Ege\xc3\xa9l'
p3946
aI1985
aa(lp3947
S'tin;'
p3948
aI1986
aa(lp3949
S'\xe2\x80\x981'
p3950
aI1987
aa(lp3951
S'results,*\\rv<!rleb_qlt_ife\xe2\x80\x98lf'
p3952
aI1988
aa(lp3953
S"'1forensic"
p3954
aI1989
aa(lp3955
S'"""I'
p3956
aI1990
aa(lp3957
S'*'
aI1991
aa(lp3958
S'vig'
p3959
aI1992
aa(lp3960
S"n'e\xc3\xa9d't-h'e1"
p3961
aI1993
aa(lp3962
S'F,~_.-'
p3963
aI1994
aa(lp3964
S'"forensic'
p3965
aI1995
aa(lp3966
S'`M'
p3967
aI1996
aa(lp3968
S'J'
aI1997
aa(lp3969
S'.-2pm'
p3970
aI1998
aa(lp3971
S'un_tli|<2pm'
p3972
aI1999
aa(lp3973
S'ahve!'
p3974
aI2000
aa(lp3975
S'\xe2\x80\x98'
p3976
aI2001
aa(lp3977
S'cHlLPANcINGU,'
p3978
aI2002
aa(lp3979
S'_-.-__'
p3980
aI2003
aa(lp3981
S'tlwe'
p3982
aI2004
aa(lp3983
S'peeple-xw/vho'
p3984
aI2005
aa(lp3985
S'intefrogated'
p3986
aI2006
aa(lp3987
S'lowered.'
p3988
aI2007
aa(lp3989
S'bodies]l'
p3990
aI2008
aa(lp3991
S'burn'
p3992
aI2009
aa(lp3993
S"rem'ains"
p3994
aI2010
aa(lp3995
S'Theremains'
p3996
aI2011
aa(lp3997
S'`remains'
p3998
aI2012
aa(lp3999
S'down?'
p4000
aI2013
aa(lp4001
S'Like'
p4002
aI2014
aa(lp4003
S'griddle.'
p4004
aI2015
aa(lp4005
S'well.'
p4006
aI2016
aa(lp4007
S'~,2pm'
p4008
aI2017
aa(lp4009
S'day,_.\\'
p4010
aI2018
aa(lp4011
S"results?\xc2\xa2\\}e'n:\xc3\xa9elgi_"
p4012
aI2019
aa(lp4013
S"'TFforensic"
p4014
aI2020
aa(lp4015
S"'_A"
p4016
aI2021
aa(lp4017
S',xt'
p4018
aI2022
aa(lp4019
S"*'1"
p4020
aI2023
aa(lp4021
S'are.'
p4022
aI2024
aa(lp4023
S"th'\xc3\xa9't'w\xc3\xa9"
p4024
aI2025
aa(lp4025
S'rare'
p4026
aI2026
aa(lp4027
S'tarinagg;Y'
p4028
aI2027
aa(lp4029
S'\xe2\x80\x9c.1about'
p4030
aI2028
aa(lp4031
S'\xe2\x80\x98_`.'
p4032
aI2029
aa(lp4033
S"we'are"
p4034
aI2030
aa(lp4035
S"tal'lm'n'g;`"
p4036
aI2031
aa(lp4037
S'-about'
p4038
aI2032
aa(lp4039
S'*lm'
p4040
aI2033
aa(lp4041
S'_*and'
p4042
aI2034
aa(lp4043
S'\xe2\x80\x9c_-`'
p4044
aI2035
aa(lp4045
S'3-and'
p4046
aI2036
aa(lp4047
S'anything._.,'
p4048
aI2037
aa(lp4049
S'anything.'
p4050
aI2038
aa(lp4051
S'alive!'
p4052
aI2039
aa(lp4053
S"\xe2\x80\x985'"
p4054
aI2040
aa(lp4055
S'Iforensic'
p4056
aI2041
aa(lp4057
S'r-'
p4058
aI2042
aa(lp4059
S'meek-5152;",-forensic'
p4060
aI2043
aa(lp4061
S"results?5\\/eir1lee,ol'm"
p4062
aI2044
aa(lp4063
S"'T'Fforensic"
p4064
aI2045
aa(lp4065
S"H'"
p4066
aI2046
aa(lp4067
S"'_J`_`"
p4068
aI2047
aa(lp4069
S'4'
aI2048
aa(lp4070
S'resultg,'
p4071
aI2049
aa(lp4072
S'vlve'
p4073
aI2050
aa(lp4074
S'appqinted,'
p4075
aI2051
aa(lp4076
S'vJeneeaxth\xc3\xa9'
p4077
aI2052
aa(lp4078
S'f!\xe2\x80\x98i1'
p4079
aI2053
aa(lp4080
S'resultg;'
p4081
aI2054
aa(lp4082
S'v\'ve"'
p4083
aI2055
aa(lp4084
S'neerzhe;'
p4085
aI2056
aa(lp4086
S'|forensic'
p4087
aI2057
aa(lp4088
S'\xe2\x80\x98__At'
p4089
aI2058
aa(lp4090
S'resunlts,'
p4091
aI2059
aa(lp4092
S'Managemme'
p4093
aI2060
aa(lp4094
S'Assisianl'
p4095
aI2061
aa(lp4096
S'IZ'
p4097
aI2062
aa(lp4098
S'Lets'
p4099
aI2063
aa(lp4100
S'"\xe2\x80\x99'
p4101
aI2064
aa(lp4102
S'f[They'
p4103
aI2065
aa(lp4104
S"tool-E'rithr-.rv"
p4105
aI2066
aa(lp4106
S'`a"'
p4107
aI2067
aa(lp4108
S'"\'Want'
p4109
aI2068
aa(lp4110
S'[They'
p4111
aI2069
aa(lp4112
S"N'IUTHER"
p4113
aI2070
aa(lp4114
S'MExlcn'
p4115
aI2071
aa(lp4116
S'graves,'
p4117
aI2072
aa(lp4118
S'vias:one'
p4119
aI2073
aa(lp4120
S'politician,--N'
p4121
aI2074
aa(lp4122
S'mr'
p4123
aI2075
aa(lp4124
S'--_'
p4125
aI2076
aa(lp4126
S'\xe2\x80\x98.In'
p4127
aI2077
aa(lp4128
S'all,'
p4129
aI2078
aa(lp4130
S'v\\'
p4131
aI2079
aa(lp4132
S"'for"
p4133
aI2080
aa(lp4134
S'Crime?'
p4135
aI2081
aa(lp4136
S'cruelty.l'
p4137
aI2082
aa(lp4138
S'EWPMRICK'
p4139
aI2083
aa(lp4140
S'4"J,,\xc2\xbb_'
p4141
aI2084
aa(lp4142
S"to.l'"
p4143
aI2085
aa(lp4144
S"'.I"
p4145
aI2086
aa(lp4146
S'anyconfrontation'
p4147
aI2087
aa(lp4148
S"students.'F"
p4149
aI2088
aa(lp4150
S'students.Il.,Ay'
p4151
aI2089
aa(lp4152
S'students.A'
p4153
aI2090
aa(lp4154
S'searching'
p4155
aI2091
aa(lp4156
S'operating'
p4157
aI2092
aa(lp4158
S'\xe2\x80\x981...5.'
p4159
aI2093
aa(lp4160
S'\\...|.,'
p4161
aI2094
aa(lp4162
S'.4..a..'
p4163
aI2095
aa(lp4164
S'15.8in._'
p4165
aI2096
aa(lp4166
S'_5'
p4167
aI2097
aa(lp4168
S'm.'
p4169
aI2098
aa(lp4170
S'_he'
p4171
aI2099
aa(lp4172
S'total'
p4173
aI2100
aa(lp4174
S'cruelty.'
p4175
aI2101
aa(lp4176
S'\xe2\x80\x9cv'
p4177
aI2102
aa(lp4178
S"|_UI'\\|_\xe2\x80\x98ILil"
p4179
aI2103
aa(lp4180
S"UENEI'XHLmExlco'UrTVf"
p4181
aI2104
aa(lp4182
S'\xe2\x80\x98F'
p4183
aI2105
aa(lp4184
S"3-'"
p4185
aI2106
aa(lp4186
S'dustbin'
p4187
aI2107
aa(lp4188
S'surely'
p4189
aI2108
aa(lp4190
S'expected'
p4191
aI2109
aa(lp4192
S'questioning'
p4193
aI2110
aa(lp4194
S'y'
aI2111
aa(lp4195
S'truth'
p4196
aI2112
aa(lp4197
S'fs'
p4198
aI2113
aa(lp4199
S'tlfltat'
p4200
aI2114
aa(lp4201
S'WI'
p4202
aI2115
aa(lp4203
S'System'
p4204
aI2116
aa(lp4205
S'Of'
p4206
aI2117
aa(lp4207
S'mbsfcorrupt'
p4208
aI2118
aa(lp4209
S'mostCoraruptA'
p4210
aI2119
aa(lp4211
S'i\\'
p4212
aI2120
aa(lp4213
S'LEU-"ILUIS'
p4214
aI2121
aa(lp4215
S'ABADLUIS'
p4216
aI2122
aa(lp4217
S'1about'
p4218
aI2123
aa(lp4219
S"t\xc3\xa9l'l'mugv"
p4220
aI2124
aa(lp4221
S'W\xc3\xa9'
p4222
aI2125
aa(lp4223
S'is_actually'
p4224
aI2126
aa(lp4225
S"Ul'l'lbl;"
p4226
aI2127
aa(lp4227
S'Inc'
p4228
aI2128
aa(lp4229
S'IUnHLI'
p4230
aI2129
aa(lp4231
S"'UEHEHHLmExlcoclTY"
p4232
aI2130
aa(lp4233
S'5*'
p4234
aI2131
aa(lp4235
S'.___'
p4236
aI2132
aa(lp4237
S'an*____'
p4238
aI2133
aa(lp4239
S'ltheir'
p4240
aI2134
aa(lp4241
S'Ithe'
p4242
aI2135
aa(lp4243
S'characteristics,'
p4244
aI2136
aa(lp4245
S"resultsjwe'"
p4246
aI2137
aa(lp4247
S'negdtpteforensic'
p4248
aI2138
aa(lp4249
S'appointedJA__'
p4250
aI2139
aa(lp4251
S"k.--i-'f"
p4252
aI2140
aa(lp4253
S'talking'
p4254
aI2141
aa(lp4255
S'mlabout'
p4256
aI2142
aa(lp4257
S'armyFor'
p4258
aI2143
aa(lp4259
S'p[eces'
p4260
aI2144
aa(lp4261
S'WIFE*an.1\xe2\x80\x99'
p4262
aI2145
aa(lp4263
S'LEGNLuls'
p4264
aI2146
aa(lp4265
S'IZIIEWPMRICK'
p4266
aI2147
aa(lp4267
S'Dave!'
p4268
aI2148
aa(lp4269
S'NSuppmf'
p4270
aI2149
aa(lp4271
S'NUEL'
p4272
aI2150
aa(lp4273
S'115141111011'
p4274
aI2151
aa(lp4275
S'NOEL'
p4276
aI2152
aa(lp4277
S'TmnsfafmnCnmrfiuafur'
p4278
aI2153
aa(lp4279
S'IUMA'
p4280
aI2154
aa(lp4281
S'NSU;me'
p4282
aI2155
aa(lp4283
S'DREWDIVERDansfamr'
p4284
aI2156
aa(lp4285
S'ANDREAHUEL'
p4286
aI2157
aa(lp4287
S'ANGEL'
p4288
aI2158
aa(lp4289
S'GALEFTNA'
p4290
aI2159
aa(lp4291
S'AYUTZINQPA'
p4292
aI2160
aa(lp4293
S'STUDENTSPRIJMETEU'
p4294
aI2161
aa(lp4295
S'LEUNLuls'
p4296
aI2162
aa(lp4297
S'ABAULu|s'
p4298
aI2163
aa(lp4299
S',IlauagmzmmAssisfanl'
p4300
aI2164
aa(lp4301
S"Imvemfanager'"
p4302
aI2165
aa(lp4303
S'IZIIEWPMRICII'
p4304
aI2166
aa(lp4305
S'BIRIIBAUTI.Pmmmfion'
p4306
aI2167
aa(lp4307
S'Iravemfanager'
p4308
aI2168
aa(lp4309
S'CIIARLEIUE'
p4310
aI2169
aa(lp4311
S'BIRIIBAUIITPmdrmrionAssiclam'
p4312
aI2170
aa(lp4313
S"Have/Eamm'ns!or"
p4314
aI2171
aa(lp4315
S'PmrfucrionManageummAssisfanl'
p4316
aI2172
aa(lp4317
S'IZIIEWPIITRICII'
p4318
aI2173
aa(lp4319
S'CIIARLEITIE'
p4320
aI2174
aa(lp4321
S'Assicfam'
p4322
aI2175
aa(lp4323
S',IlauagefuemAssisfanl'
p4324
aI2176
aa(lp4325
S'DLI'
p4326
aI2177
aa(lp4327
S'VIII'
p4328
aI2178
aa(lp4329
S'BE'
p4330
aI2179
aa(lp4331
S'I3'
p4332
aI2180
aa(lp4333
S'K'
aI2181
aa(lp4334
S'KAI'
p4335
aI2182
aa(lp4336
S'TLYII'
p4337
aI2183
aa(lp4338
S"anmmu'-.flcmR"
p4339
aI2184
aa(lp4340
S"anmmn'-.flcmR"
p4341
aI2185
aa(lp4342
S"IIIl-UnABARCA'S"
p4343
aI2186
aa(lp4344
S'LEdr-lLuls'
p4345
aI2187
aa(lp4346
S'area,'
p4347
aI2188
aa(lp4348
S'it,'
p4349
aI2189
aa(lp4350
S'stigma'
p4351
aI2190
aa(lp4352
S'Q'
aI2191
aa(lp4353
S'`\\'
p4354
aI2192
aa(lp4355
S'criminalll\'ze""i'
p4356
aI2193
aa(lp4357
S'\\\\-'
p4358
aI2194
aa(lp4359
S'.Ithe'
p4360
aI2195
aa(lp4361
S'r.'
p4362
aI2196
aa(lp4363
S"thablgg'e\xc3\xa9/us"
p4364
aI2197
aa(lp4365
S'Calle'
p4366
aI2198
aa(lp4367
S'Alvarez.'
p4368
aI2199
aa(lp4369
S',__'
p4370
aI2200
aa(lp4371
S'__,'
p4372
aI2201
aa(lp4373
S'I\'llnl\\l|"\\'
p4374
aI2202
aa(lp4375
S'l-UU'
p4376
aI2203
aa(lp4377
S'nIIUI-l-I-U'
p4378
aI2204
aa(lp4379
S"of'f"
p4380
aI2205
aa(lp4381
S'Shoot'
p4382
aI2206
aa(lp4383
S'cornered'
p4384
aI2207
aa(lp4385
S"HERHnNnEzr-'IUISES"
p4386
aI2208
aa(lp4387
S'LEUNLuis'
p4388
aI2209
aa(lp4389
S"'115215051HUMAN"
p4390
aI2210
aa(lp4391
S"'nfemumRumrlN"
p4392
aI2211
aa(lp4393
S'suFiA'
p4394
aI2212
aa(lp4395
S"'nmmuznRumrlN"
p4396
aI2213
aa(lp4397
S"HERHANUEZr-'luIsE's"
p4398
aI2214
aa(lp4399
S'ummHUMAN'
p4400
aI2215
aa(lp4401
S'51921114'
p4402
aI2216
aa(lp4403
S'M'
aI2217
aa(lp4404
S"'v'ICE"
p4405
aI2218
aa(lp4406
S'l\\|\'|[IE||1ED|"\\_II\xe2\x80\x98III.'
p4407
aI2219
aa(lp4408
S'"-\'=1\'Ill|\xc2\xbbf:HTH-13751'
p4409
aI2220
aa(lp4410
S"\xe2\x80\x981'L'."
p4411
aI2221
aa(lp4412
S'Inf\xe2\x80\x99'
p4413
aI2222
aa(lp4414
S'began.'
p4415
aI2223
aa(lp4416
S'AYUTZINAPA'
p4417
aI2224
aa(lp4418
S'"'
aI2225
aa(lp4419
S'GUERRERU--~'
p4420
aI2226
aa(lp4421
S'leader'
p4422
aI2227
aa(lp4423
S'people,~'
p4424
aI2228
aa(lp4425
S'"h'
p4426
aI2229
aa(lp4427
S'\xe2\x80\x98L_'
p4428
aI2230
aa(lp4429
S'There\xe2\x80\x99s'
p4430
aI2231
aa(lp4431
S"There'S"
p4432
aI2232
aa(lp4433
S'comes'
p4434
aI2233
aa(lp4435
S'identifying'
p4436
aI2234
aa(lp4437
S'bodies.'
p4438
aI2235
aa(lp4439
S'exhumatien'
p4440
aI2236
aa(lp4441
S'arid-tgiaentification'
p4442
aI2237
aa(lp4443
S'completer'
p4444
aI2238
aa(lp4445
S'exhuQi`ati6`|1'
p4446
aI2239
aa(lp4447
S"process`1h'izjignfmbeen"
p4448
aI2240
aa(lp4449
S'compietely'
p4450
aI2241
aa(lp4451
S'\\.__'
p4452
aI2242
aa(lp4453
S'*if'
p4454
aI2243
aa(lp4455
S'1\'"`|I'
p4456
aI2244
aa(lp4457
S'.I'
p4458
aI2245
aa(lp4459
S'Maybe'
p4460
aI2246
aa(lp4461
S'uspI'
p4462
aI2247
aa(lp4463
S'I1Inl\\ln'
p4464
aI2248
aa(lp4465
S"'trust"
p4466
aI2249
aa(lp4467
S'Maria'
p4468
aI2250
aa(lp4469
S'los'
p4470
aI2251
aa(lp4471
S'Angeles'
p4472
aI2252
aa(lp4473
S'Pineda,'
p4474
aI2253
aa(lp4475
S'QW'
p4476
aI2254
aa(lp4477
S'shortly'
p4478
aI2255
aa(lp4479
S'thereafter,'
p4480
aI2256
aa(lp4481
S'belong'
p4482
aI2257
aa(lp4483
S'policing'
p4484
aI2258
aa(lp4485
S'stop'
p4486
aI2259
aa(lp4487
S'I).We'
p4488
aI2260
aa(lp4489
S'students.#4|'
p4490
aI2261
aa(lp4491
S'Students.l:'
p4492
aI2262
aa(lp4493
S'.o'
p4494
aI2263
aa(lp4495
S'~l'
p4496
aI2264
aa(lp4497
S"p'lolice"
p4498
aI2265
aa(lp4499
S'people,_'
p4500
aI2266
aa(lp4501
S'I.,_'
p4502
aI2267
aa(lp4503
S'The`\xc2\xa7\xc2\xa71`afftives'
p4504
aI2268
aa(lp4505
S'externai'
p4506
aI2269
aa(lp4507
S'team,.|I_'
p4508
aI2270
aa(lp4509
S'lLl-II'
p4510
aI2271
aa(lp4511
S'I-'
p4512
aI2272
aa(lp4513
S'I-n'
p4514
aI2273
aa(lp4515
S'[JF'
p4516
aI2274
aa(lp4517
S'Tale'
p4518
aI2275
aa(lp4519
S'Skate'
p4520
aI2276
aa(lp4521
S'governmentIl'
p4522
aI2277
aa(lp4523
S'.i'
p4524
aI2278
aa(lp4525
S'k-'
p4526
aI2279
aa(lp4527
S'policewho'
p4528
aI2280
aa(lp4529
S"'v"
p4530
aI2281
aa(lp4531
S'bodies,'
p4532
aI2282
aa(lp4533
S'-4'
p4534
aI2283
aa(lp4535
S'studies,v'
p4536
aI2284
aa(lp4537
S'[1F'
p4538
aI2285
aa(lp4539
S'tothe'
p4540
aI2286
aa(lp4541
S'forenMes,'
p4542
aI2287
aa(lp4543
S"people's"
p4544
aI2288
aa(lp4545
S"people'S"
p4546
aI2289
aa(lp4547
S'Solution'
p4548
aI2290
aa(lp4549
S'gOt'
p4550
aI2291
aa(lp4551
S"Tt'igg'fgeiativesiand"
p4552
aI2292
aa(lp4553
S'\\\xc2\xa5'
p4554
aI2293
aa(lp4555
S'.fasked'
p4556
aI2294
aa(lp4557
S'_for'
p4558
aI2295
aa(lp4559
S'FORENSIO'
p4560
aI2296
aa(lp4561
S'ANTHROPOLOGY'
p4562
aI2297
aa(lp4563
S'gmt'
p4564
aI2298
aa(lp4565
S'call.'
p4566
aI2299
aa(lp4567
S'lthe'
p4568
aI2300
aa(lp4569
S'threatening'
p4570
aI2301
aa(lp4571
S'totai'
p4572
aI2302
aa(lp4573
S'Niost'
p4574
aI2303
aa(lp4575
S'Were'
p4576
aI2304
aa(lp4577
S'people?'
p4578
aI2305
aa(lp4579
S'owe'
p4580
aI2306
aa(lp4581
S'ltime'
p4582
aI2307
aa(lp4583
S'WIFE`'
p4584
aI2308
aa(lp4585
S'WIFE\xc2\xbb-.'
p4586
aI2309
aa(lp4587
S'CHILPANCINGU,'
p4588
aI2310
aa(lp4589
S'hereH'
p4590
aI2311
aa(lp4591
S'ourselvesN'
p4592
aI2312
aa(lp4593
S'-T'
p4594
aI2313
aa(lp4595
S'_"`k'
p4596
aI2314
aa(lp4597
S'anyone,;,\\'
p4598
aI2315
aa(lp4599
S'.f'
p4600
aI2316
aa(lp4601
S'7:'
p4602
aI2317
aa(lp4603
S"I'against"
p4604
aI2318
aa(lp4605
S'anyone,%vo-'
p4606
aI2319
aa(lp4607
S'llagainst'
p4608
aI2320
aa(lp4609
S"-spe'gk-up"
p4610
aI2321
aa(lp4611
S'iagainst'
p4612
aI2322
aa(lp4613
S'speak'
p4614
aI2323
aa(lp4615
S'_gp'
p4616
aI2324
aa(lp4617
S'td'
p4618
aI2325
aa(lp4619
S'anyone,\xe2\x80\x98km'
p4620
aI2326
aa(lp4621
S'-\xc2\xbb'
p4622
aI2327
aa(lp4623
S'ito'
p4624
aI2328
aa(lp4625
S'ourselves,.5'
p4626
aI2329
aa(lp4627
S"M'Jfggj\xc3\xa9;*\xe2\x80\x9dwHe"
p4628
aI2330
aa(lp4629
S"I'llnl\\ln"
p4630
aI2331
aa(lp4631
S'here..._-M.v'
p4632
aI2332
aa(lp4633
S'aIway(Isxaxjfjlif\xc2\xa7\xc2\xa53yJe:gv'
p4634
aI2333
aa(lp4635
S'a;'
p4636
aI2334
aa(lp4637
S'a__,5_c_5_re"pbi|\xe2\x80\x9citf'
p4638
aI2335
aa(lp4639
S'aIway_,s\xc2\xa7gj_Eg\\l\\;f_v_\xc2\xa2?gi>'
p4640
aI2336
aa(lp4641
S'jg;Ayotzi'
p4642
aI2337
aa(lp4643
S'napa'
p4644
aI2338
aa(lp4645
S',as'
p4646
aI2339
aa(lp4647
S'__a'
p4648
aI2340
aa(lp4649
S"jsprepkcm'it"
p4650
aI2341
aa(lp4651
S'/f'
p4652
aI2342
aa(lp4653
S"'r"
p4654
aI2343
aa(lp4655
S'_,The'
p4656
aI2344
aa(lp4657
S'alwaygyjewgg'
p4658
aI2345
aa(lp4659
S'a.s__\xc2\xa7>re`\xc2\xa701r\xe2\x80\x991f'
p4660
aI2346
aa(lp4661
S'Notjust'
p4662
aI2347
aa(lp4663
S'across'
p4664
aI2348
aa(lp4665
S',F_'
p4666
aI2349
aa(lp4667
S'eyes,umu-'
p4668
aI2350
aa(lp4669
S'anyime'
p4670
aI2351
aa(lp4671
S'eyes,i'
p4672
aI2352
aa(lp4673
S"'1wa15;"
p4674
aI2353
aa(lp4675
S'7'
aI2354
aa(lp4676
S'|`l'
p4677
aI2355
aa(lp4678
S'""uJ'
p4679
aI2356
aa(lp4680
S'shock'
p4681
aI2357
aa(lp4682
S'*_*'
p4683
aI2358
aa(lp4684
S"'wuol-"
p4685
aI2359
aa(lp4686
S"nUnI\\Ul'\\-MAYORUF"
p4687
aI2360
aa(lp4688
S'UUI-'
p4689
aI2361
aa(lp4690
S'nUnI\\Un_MAYOR'
p4691
aI2362
aa(lp4692
S'mum'
p4693
aI2363
aa(lp4694
S'"-\''
p4695
aI2364
aa(lp4696
S'IUQI-'
p4697
aI2365
aa(lp4698
S'nUnI\\UnMAYURUF'
p4699
aI2366
aa(lp4700
S"sl'-"
p4701
aI2367
aa(lp4702
S'Illnl\\ln'
p4703
aI2368
aa(lp4704
S'nI1UI-l-I-U'
p4705
aI2369
aa(lp4706
S'W|_FEv~_,'
p4707
aI2370
aa(lp4708
S'momentsin'
p4709
aI2371
aa(lp4710
S'certain'
p4711
aI2372
aa(lp4712
S'Guerrero_Ai'
p4713
aI2373
aa(lp4714
S'u.aJFf'
p4715
aI2374
aa(lp4716
S'howto'
p4717
aI2375
aa(lp4718
S'ourselves.'
p4719
aI2376
aa(lp4720
S'mExlcu'
p4721
aI2377
aa(lp4722
S"cm'"
p4723
aI2378
aa(lp4724
S"AcAPuLchTHI'hHWAY"
p4725
aI2379
aa(lp4726
S'HIGHWAY__'
p4727
aI2380
aa(lp4728
S'<`'
p4729
aI2381
aa(lp4730
S'fwf-|IY\\"'
p4731
aI2382
aa(lp4732
S'ihe'
p4733
aI2383
aa(lp4734
S'l|\xc2\xa7|I'
p4735
aI2384
aa(lp4736
S'weeks'
p4737
aI2385
aa(lp4738
S'died'
p4739
aI2386
aa(lp4740
S'wounds.'
p4741
aI2387
aa(lp4742
S'certaih'
p4743
aI2388
aa(lp4744
S"'moments,"
p4745
aI2389
aa(lp4746
S'Mr'
p4747
aI2390
aa(lp4748
S'\xe2\x80\x98_a*"1'
p4749
aI2391
aa(lp4750
S'AyotzinaBa'
p4751
aI2392
aa(lp4752
S"igudem'*"
p4753
aI2393
aa(lp4754
S'aliv$'
p4755
aI2394
aa(lp4756
S'_h'
p4757
aI2395
aa(lp4758
S"a'_"
p4759
aI2396
aa(lp4760
S'Aliell'
p4761
aI2397
aa(lp4762
S'all;>I~~'
p4763
aI2398
aa(lp4764
S'.to'
p4765
aI2399
aa(lp4766
S'tel|`you'
p4767
aI2400
aa(lp4768
S'allf'
p4769
aI2401
aa(lp4770
S'._'
p4771
aI2402
aa(lp4772
S"_t_o__t|'_1e_peop|e"
p4773
aI2403
aa(lp4774
S'vh'
p4775
aI2404
aa(lp4776
S",____a-f--F''to"
p4777
aI2405
aa(lp4778
S'country,___-._'
p4779
aI2406
aa(lp4780
S'entire'
p4781
aI2407
aa(lp4782
S'world,'
p4783
aI2408
aa(lp4784
S'tells'
p4785
aI2409
aa(lp4786
S'thing'
p4787
aI2410
aa(lp4788
S'deliver.'
p4789
aI2411
aa(lp4790
S'j,'
p4791
aI2412
aa(lp4792
S"\xc2\xa351'"
p4793
aI2413
aa(lp4794
S'-2'
p4795
aI2414
aa(lp4796
S"the'y"
p4797
aI2415
aa(lp4798
S'\xe2\x80\x98_'
p4799
aI2416
aa(lp4800
S"hasn't"
p4801
aI2417
aa(lp4802
S'done'
p4803
aI2418
aa(lp4804
S'anything.\\'
p4805
aI2419
aa(lp4806
S'\\His'
p4807
aI2420
aa(lp4808
S'ineptitude'
p4809
aI2421
aa(lp4810
S'since"`lthe'
p4811
aI2422
aa(lp4812
S"themn'iiind"
p4813
aI2423
aa(lp4814
S'answer,Saying'
p4815
aI2424
aa(lp4816
S"'imma"
p4817
aI2425
aa(lp4818
S'stiII'
p4819
aI2426
aa(lp4820
S'givin'
p4821
aI2427
aa(lp4822
S'm'
aI2428
aa(lp4823
S'alive1'
p4824
aI2429
aa(lp4825
S'_Because'
p4826
aI2430
aa(lp4827
S"alive,'"
p4828
aI2431
aa(lp4829
S'alive,.'
p4830
aI2432
aa(lp4831
S'Was'
p4832
aI2433
aa(lp4833
S'Statewho'
p4834
aI2434
aa(lp4835
S'tt'
p4836
aI2435
aa(lp4837
S'COBULA,'
p4838
aI2436
aa(lp4839
S'offered'
p4840
aI2437
aa(lp4841
S'devastating'
p4842
aI2438
aa(lp4843
S'news:'
p4844
aI2439
aa(lp4845
S'Members'
p4846
aI2440
aa(lp4847
S'IUNA"'
p4848
aI2441
aa(lp4849
S'CHEREJE"'
p4850
aI2442
aa(lp4851
S'"We'
p4852
aI2443
aa(lp4853
S'students!"'
p4854
aI2444
aa(lp4855
S'said.'
p4856
aI2445
aa(lp4857
S'rest'
p4858
aI2446
aa(lp4859
S'investigation,~'
p4860
aI2447
aa(lp4861
S"res't"
p4862
aI2448
aa(lp4863
S'investigation,'
p4864
aI2449
aa(lp4865
S'sorrowful'
p4866
aI2450
aa(lp4867
S'v\xc3\xa9ry'
p4868
aI2451
aa(lp4869
S'Sorrowful'
p4870
aI2452
aa(lp4871
S"m\xc3\xa9'ny"
p4872
aI2453
aa(lp4873
S'Karam,'
p4874
aI2454
aa(lp4875
S'Jes\xc3\xbas'
p4876
aI2455
aa(lp4877
S"|un|1\xc2\xa3l__ul;|1r_.m-\\L'"
p4878
aI2456
aa(lp4879
S'i:It'
p4880
aI2457
aa(lp4881
S'kilometers'
p4882
aI2458
aa(lp4883
S'Y|:-_'
p4884
aI2459
aa(lp4885
S'1|'
p4886
aI2460
aa(lp4887
S'observers,'
p4888
aI2461
aa(lp4889
S'p..'
p4890
aI2462
aa(lp4891
S'mnwmlu'
p4892
aI2463
aa(lp4893
S'..:wi-4m,_fu'
p4894
aI2464
aa(lp4895
S"IUI'\\NL'_J"
p4896
aI2465
aa(lp4897
S"Iurrlm'."
p4898
aI2466
aa(lp4899
S'UEHLRHLmExlcoclTv'
p4900
aI2467
aa(lp4901
S'_!!'
p4902
aI2468
aa(lp4903
S'urrlur.'
p4904
aI2469
aa(lp4905
S'lm:'
p4906
aI2470
aa(lp4907
S'uLHLnHLMEXIDU'
p4908
aI2471
aa(lp4909
S"urrlua'."
p4910
aI2472
aa(lp4911
S'uLIILnHLMEXICO'
p4912
aI2473
aa(lp4913
S'moror\xc2\xa7p9egh'
p4914
aI2474
aa(lp4915
S'politician,"lm'
p4916
aI2475
aa(lp4917
S'Speech'
p4918
aI2476
aa(lp4919
S')'
aI2477
aa(lp4920
S'/I'
p4921
aI2478
aa(lp4922
S'`n'
p4923
aI2479
aa(lp4924
S'`In'
p4925
aI2480
aa(lp4926
S'environment,/f-'
p4927
aI2481
aa(lp4928
S'focu`s'
p4929
aI2482
aa(lp4930
S'priorities,A*'
p4931
aI2483
aa(lp4932
S'priorities,/f'
p4933
aI2484
aa(lp4934
S"priorities,A'"
p4935
aI2485
aa(lp4936
S'today,L1'
p4937
aI2486
aa(lp4938
S'decided,'
p4939
aI2487
aa(lp4940
S'G\xc3\xa9vernor,'
p4941
aI2488
aa(lp4942
S'_you'
p4943
aI2489
aa(lp4944
S"mayor'S"
p4945
aI2490
aa(lp4946
S'_TQ'
p4947
aI2491
aa(lp4948
S'TO-be'
p4949
aI2492
aa(lp4950
S'_are'
p4951
aI2493
aa(lp4952
S"veryangl'yg"
p4953
aI2494
aa(lp4954
S'`ln'
p4955
aI2495
aa(lp4956
S'\xe2\x80\x98the'
p4957
aI2496
aa(lp4958
S'right.'
p4959
aI2497
aa(lp4960
S'We;f\xc3\xa9\xe2\x80\x98i;-\xc2\xa7;o`ivil1g,and'
p4961
aI2498
aa(lp4962
S'-\\'
p4963
aI2499
aa(lp4964
S'PRLUIfIIIIDVICIUR'
p4965
aI2500
aa(lp4966
S'we\xe2\x80\x99r4!.x'
p4967
aI2501
aa(lp4968
S'QBTSQ,and'
p4969
aI2502
aa(lp4970
S'\xe2\x80\x98to'
p4971
aI2503
aa(lp4972
S'\xc3\xa9io?'
p4973
aI2504
aa(lp4974
S'Where'
p4975
aI2505
aa(lp4976
S'goingt'
p4977
aI2506
aa(lp4978
S'Yeah,'
p4979
aI2507
aa(lp4980
S'do?'
p4981
aI2508
aa(lp4982
S'supermarket'
p4983
aI2509
aa(lp4984
S'SLipermaFiEt'
p4985
aI2510
aa(lp4986
S'51'
p4987
aI2511
aa(lp4988
S"shopping!_'"
p4989
aI2512
aa(lp4990
S'`-'
p4991
aI2513
aa(lp4992
S"'r7'\\"
p4993
aI2514
aa(lp4994
S"`T'"
p4995
aI2515
aa(lp4996
S'\\~_'
p4997
aI2516
aa(lp4998
S'th\xc3\xa9'
p4999
aI2517
aa(lp5000
S"C\xc3\xa9'se"
p5001
aI2518
aa(lp5002
S'thgm'
p5003
aI2519
aa(lp5004
S'wg-fi*`'
p5005
aI2520
aa(lp5006
S"'m"
p5007
aI2521
aa(lp5008
S'NIUTHER'
p5009
aI2522
aa(lp5010
S'STUDENTIf'
p5011
aI2523
aa(lp5012
S"b'NIIJTHER"
p5013
aI2524
aa(lp5014
S'STUDENTwhy'
p5015
aI2525
aa(lp5016
S"wouldn't"
p5017
aI2526
aa(lp5018
S"gi've"
p5019
aI2527
aa(lp5020
S'MOTHER'
p5021
aI2528
aa(lp5022
S'CITYHR'
p5023
aI2529
aa(lp5024
S"'MExlcn"
p5025
aI2530
aa(lp5026
S'trenches,'
p5027
aI2531
aa(lp5028
S'ltells'
p5029
aI2532
aa(lp5030
S'aiive.'
p5031
aI2533
aa(lp5032
S'agony'
p5033
aI2534
aa(lp5034
S'long.'
p5035
aI2535
aa(lp5036
S'"*[They'
p5037
aI2536
aa(lp5038
S'"f'
p5039
aI2537
aa(lp5040
S"4'\xe2\x80\x9d"
p5041
aI2538
aa(lp5042
S'waaiaem'
p5043
aI2539
aa(lp5044
S"-'"
p5045
aI2540
aa(lp5046
S"_.'"
p5047
aI2541
aa(lp5048
S'creasev\xc2\xa7'
p5049
aI2542
aa(lp5050
S"arede'ad."
p5051
aI2543
aa(lp5052
S'*f'
p5053
aI2544
aa(lp5054
S'..1'
p5055
aI2545
aa(lp5056
S'_[They'
p5057
aI2546
aa(lp5058
S'alive]L.._H'
p5059
aI2547
aa(lp5060
S"themBgicking'gpeJl-f'"
p5061
aI2548
aa(lp5062
S"'l[They"
p5063
aI2549
aa(lp5064
S'anim'
p5065
aI2550
aa(lp5066
S'aIive.],_m'
p5067
aI2551
aa(lp5068
S'\xc3\xa9'
p5069
aI2552
aa(lp5070
S'#S'
p5071
aI2553
aa(lp5072
S'I[They'
p5073
aI2554
aa(lp5074
S"'tov"
p5075
aI2555
aa(lp5076
S'`hll'
p5077
aI2556
aatRp5078
.